(dp0
S'SU3'
p1
(dp2
S'Bilinear'
p3
(dp4
((I1
I0
tp5
(I0
I1
tp6
tp7
(lp8
(I1
I1
I1
tp9
a(I2
I2
I1
tp10
a(I3
I3
I1
tp11
as((I0
I1
tp12
(I1
I0
tp13
tp14
(lp15
(I1
I1
I1
tp16
a(I2
I2
I1
tp17
a(I3
I3
I1
tp18
assS'HBmat'
p19
(dp20
(I0
I1
tp21
(dp22
(I0
I1
tp23
(dp24
S'shape'
p25
(I3
I3
tp26
sS'mat'
p27
((csympy.core.numbers
Zero
p28
(tRp29
(dp30
bcsympy.core.mul
Mul
p31
(csympy.core.numbers
Rational
p32
(I-1
I2
tp33
Rp34
(dp35
bcsympy.core.numbers
ImaginaryUnit
p36
(tRp37
(dp38
btp39
Rp40
(dp41
bg29
g40
g29
g29
g29
g29
g29
tp42
(g29
g29
g29
g29
g29
g40
g29
g40
g29
tp43
(g29
g29
g29
g29
g29
g29
g29
g29
g29
tp44
(g29
g29
g29
g29
g29
g29
g29
g29
g29
tp45
(g29
g29
g29
g29
g29
g29
g29
g29
g29
tp46
(g29
g29
g31
(csympy.core.numbers
Half
p47
(tRp48
(dp49
bg37
tp50
Rp51
(dp52
bg29
g29
g29
g51
g29
g29
tp53
(g31
(g32
(I-1
I3
tp54
Rp55
(dp56
bg37
csympy.core.power
Pow
p57
(csympy.core.numbers
Integer
p58
(I3
tp59
Rp60
(dp61
bg48
tp62
Rp63
(dp64
btp65
Rp66
(dp67
bg29
g29
g29
g31
(g32
(I1
I6
tp68
Rp69
(dp70
bg37
g63
tp71
Rp72
(dp73
bg29
g29
g29
g72
tp74
(g29
g29
g29
g29
g40
g29
g29
g29
g51
tp75
tp76
ss(I1
I0
tp77
(dp78
g25
g26
sg27
((g29
g51
g29
g51
g29
g29
g29
g29
g29
tp79
(g29
g29
g29
g29
g29
g51
g29
g51
g29
tp80
(g29
g29
g29
g29
g29
g29
g29
g29
g29
tp81
(g29
g29
g29
g29
g29
g29
g29
g29
g29
tp82
(g29
g29
g29
g29
g29
g29
g29
g29
g29
tp83
(g29
g29
g40
g29
g29
g29
g40
g29
g29
tp84
(g31
(g32
(I1
I3
tp85
Rp86
(dp87
bg37
g63
tp88
Rp89
(dp90
bg29
g29
g29
g31
(g32
(I-1
I6
tp91
Rp92
(dp93
bg37
g63
tp94
Rp95
(dp96
bg29
g29
g29
g95
tp97
(g29
g29
g29
g29
g51
g29
g29
g29
g40
tp98
tp99
ss(I0
I0
tp100
(dp101
g25
g26
sg27
((g29
g29
g29
g29
g29
g29
g29
g29
g29
tp102
(g29
g29
g29
g29
g29
g29
g29
g29
g29
tp103
(g29
g29
g51
g29
g29
g29
g40
g29
g29
tp104
(g29
g40
g29
g51
g29
g29
g29
g29
g29
tp105
(g29
g29
g29
g29
g29
g40
g29
g51
g29
tp106
(g29
g29
g29
g29
g29
g29
g29
g29
g29
tp107
(g29
g29
g29
g29
g29
g29
g29
g29
g29
tp108
(g29
g29
g29
g29
g29
g29
g29
g29
g29
tp109
tp110
ss(I1
I1
tp111
(dp112
g25
g26
sg27
((g29
g29
g29
g29
g29
g29
g29
g29
g29
tp113
(g29
g29
g29
g29
g29
g29
g29
g29
g29
tp114
(g29
g29
g51
g29
g29
g29
g40
g29
g29
tp115
(g29
g40
g29
g51
g29
g29
g29
g29
g29
tp116
(g29
g29
g29
g29
g29
g40
g29
g51
g29
tp117
(g29
g29
g29
g29
g29
g29
g29
g29
g29
tp118
(g29
g29
g29
g29
g29
g29
g29
g29
g29
tp119
(g29
g29
g29
g29
g29
g29
g29
g29
g29
tp120
tp121
sss(I1
I0
tp122
(dp123
(I0
I1
tp124
(dp125
g25
(I3
I3
tp126
sg27
((g29
g51
g29
g51
g29
g29
g29
g29
g29
tp127
(g29
g29
g29
g29
g29
g51
g29
g51
g29
tp128
(g29
g29
g29
g29
g29
g29
g29
g29
g29
tp129
(g29
g29
g29
g29
g29
g29
g29
g29
g29
tp130
(g29
g29
g29
g29
g29
g29
g29
g29
g29
tp131
(g29
g29
g40
g29
g29
g29
g40
g29
g29
tp132
(g89
g29
g29
g29
g95
g29
g29
g29
g95
tp133
(g29
g29
g29
g29
g51
g29
g29
g29
g40
tp134
tp135
ss(I1
I0
tp136
(dp137
g25
g126
sg27
((g29
g40
g29
g40
g29
g29
g29
g29
g29
tp138
(g29
g29
g29
g29
g29
g40
g29
g40
g29
tp139
(g29
g29
g29
g29
g29
g29
g29
g29
g29
tp140
(g29
g29
g29
g29
g29
g29
g29
g29
g29
tp141
(g29
g29
g29
g29
g29
g29
g29
g29
g29
tp142
(g29
g29
g51
g29
g29
g29
g51
g29
g29
tp143
(g66
g29
g29
g29
g72
g29
g29
g29
g72
tp144
(g29
g29
g29
g29
g40
g29
g29
g29
g51
tp145
tp146
ss(I0
I0
tp147
(dp148
g25
g126
sg27
((g29
g29
g29
g29
g29
g29
g29
g29
g29
tp149
(g29
g29
g29
g29
g29
g29
g29
g29
g29
tp150
(g29
g29
g51
g29
g29
g29
g40
g29
g29
tp151
(g29
g40
g29
g51
g29
g29
g29
g29
g29
tp152
(g29
g29
g29
g29
g29
g40
g29
g51
g29
tp153
(g29
g29
g29
g29
g29
g29
g29
g29
g29
tp154
(g29
g29
g29
g29
g29
g29
g29
g29
g29
tp155
(g29
g29
g29
g29
g29
g29
g29
g29
g29
tp156
tp157
ss(I1
I1
tp158
(dp159
g25
g126
sg27
((g29
g29
g29
g29
g29
g29
g29
g29
g29
tp160
(g29
g29
g29
g29
g29
g29
g29
g29
g29
tp161
(g29
g29
g51
g29
g29
g29
g40
g29
g29
tp162
(g29
g40
g29
g51
g29
g29
g29
g29
g29
tp163
(g29
g29
g29
g29
g29
g40
g29
g51
g29
tp164
(g29
g29
g29
g29
g29
g29
g29
g29
g29
tp165
(g29
g29
g29
g29
g29
g29
g29
g29
g29
tp166
(g29
g29
g29
g29
g29
g29
g29
g29
g29
tp167
tp168
ssssS'Dynkin'
p169
(dp170
(I0
I1
tp171
g48
s(I1
I0
tp172
g48
ssS'Quartic'
p173
(dp174
((I0
I1
tp175
(I0
I1
tp176
(I1
I0
tp177
(I1
I0
tp178
tp179
(lp180
(lp181
(I1
I2
I1
I2
g31
(g34
g63
tp182
Rp183
(dp184
btp185
a(I1
I2
I2
I1
g31
(g48
g63
tp186
Rp187
(dp188
btp189
a(I1
I3
I1
I3
g183
tp190
a(I1
I3
I3
I1
g187
tp191
a(I2
I1
I1
I2
g187
tp192
a(I2
I1
I2
I1
g183
tp193
a(I2
I3
I2
I3
g183
tp194
a(I2
I3
I3
I2
g187
tp195
a(I3
I1
I1
I3
g187
tp196
a(I3
I1
I3
I1
g183
tp197
a(I3
I2
I2
I3
g187
tp198
a(I3
I2
I3
I2
g183
tp199
aa(lp200
(I1
I1
I1
I1
g31
(g48
g57
(g58
(I6
tp201
Rp202
(dp203
bg48
tp204
Rp205
(dp206
btp207
Rp208
(dp209
btp210
a(I1
I2
I1
I2
g31
(g32
(I1
I4
tp211
Rp212
(dp213
bg205
tp214
Rp215
(dp216
btp217
a(I1
I2
I2
I1
g215
tp218
a(I1
I3
I1
I3
g215
tp219
a(I1
I3
I3
I1
g215
tp220
a(I2
I1
I1
I2
g215
tp221
a(I2
I1
I2
I1
g215
tp222
a(I2
I2
I2
I2
g208
tp223
a(I2
I3
I2
I3
g215
tp224
a(I2
I3
I3
I2
g215
tp225
a(I3
I1
I1
I3
g215
tp226
a(I3
I1
I3
I1
g215
tp227
a(I3
I2
I2
I3
g215
tp228
a(I3
I2
I3
I2
g215
tp229
a(I3
I3
I3
I3
g208
tp230
aas((I1
I0
tp231
(I0
I1
tp232
(I0
I1
tp233
(I1
I0
tp234
tp235
(lp236
(lp237
(I1
I1
I1
I1
I1
tp238
a(I1
I1
I2
I2
I1
tp239
a(I1
I1
I3
I3
I1
tp240
a(I2
I2
I1
I1
I1
tp241
a(I2
I2
I2
I2
I1
tp242
a(I2
I2
I3
I3
I1
tp243
a(I3
I3
I1
I1
I1
tp244
a(I3
I3
I2
I2
I1
tp245
a(I3
I3
I3
I3
I1
tp246
aa(lp247
(I1
I1
I1
I1
g31
(g34
g57
(g58
(I2
tp248
Rp249
(dp250
bg48
tp251
Rp252
(dp253
btp254
Rp255
(dp256
btp257
a(I1
I1
I2
I2
g31
(g212
g252
tp258
Rp259
(dp260
btp261
a(I1
I1
I3
I3
g259
tp262
a(I1
I2
I1
I2
g31
(g32
(I-3
I4
tp263
Rp264
(dp265
bg252
tp266
Rp267
(dp268
btp269
a(I1
I3
I1
I3
g267
tp270
a(I2
I1
I2
I1
g267
tp271
a(I2
I2
I1
I1
g259
tp272
a(I2
I2
I2
I2
g255
tp273
a(I2
I2
I3
I3
g259
tp274
a(I2
I3
I2
I3
g267
tp275
a(I3
I1
I3
I1
g267
tp276
a(I3
I2
I3
I2
g267
tp277
a(I3
I3
I1
I1
g259
tp278
a(I3
I3
I2
I2
g259
tp279
a(I3
I3
I3
I3
g255
tp280
aas((I0
I1
tp281
(I1
I0
tp282
(I0
I1
tp283
(I1
I0
tp284
tp285
(lp286
(lp287
(I1
I1
I1
I1
I1
tp288
a(I1
I1
I2
I2
I1
tp289
a(I1
I1
I3
I3
I1
tp290
a(I2
I2
I1
I1
I1
tp291
a(I2
I2
I2
I2
I1
tp292
a(I2
I2
I3
I3
I1
tp293
a(I3
I3
I1
I1
I1
tp294
a(I3
I3
I2
I2
I1
tp295
a(I3
I3
I3
I3
I1
tp296
aa(lp297
(I1
I1
I1
I1
g255
tp298
a(I1
I1
I2
I2
g259
tp299
a(I1
I1
I3
I3
g259
tp300
a(I1
I2
I2
I1
g267
tp301
a(I1
I3
I3
I1
g267
tp302
a(I2
I1
I1
I2
g267
tp303
a(I2
I2
I1
I1
g259
tp304
a(I2
I2
I2
I2
g255
tp305
a(I2
I2
I3
I3
g259
tp306
a(I2
I3
I3
I2
g267
tp307
a(I3
I1
I1
I3
g267
tp308
a(I3
I2
I2
I3
g267
tp309
a(I3
I3
I1
I1
g259
tp310
a(I3
I3
I2
I2
g259
tp311
a(I3
I3
I3
I3
g255
tp312
aas((I1
I0
tp313
(I1
I0
tp314
(I0
I1
tp315
(I0
I1
tp316
tp317
(lp318
(lp319
(I1
I1
I1
I1
g208
tp320
a(I1
I2
I1
I2
g215
tp321
a(I1
I2
I2
I1
g215
tp322
a(I1
I3
I1
I3
g215
tp323
a(I1
I3
I3
I1
g215
tp324
a(I2
I1
I1
I2
g215
tp325
a(I2
I1
I2
I1
g215
tp326
a(I2
I2
I2
I2
g208
tp327
a(I2
I3
I2
I3
g215
tp328
a(I2
I3
I3
I2
g215
tp329
a(I3
I1
I1
I3
g215
tp330
a(I3
I1
I3
I1
g215
tp331
a(I3
I2
I2
I3
g215
tp332
a(I3
I2
I3
I2
g215
tp333
a(I3
I3
I3
I3
g208
tp334
aa(lp335
(I1
I2
I1
I2
g183
tp336
a(I1
I2
I2
I1
g187
tp337
a(I1
I3
I1
I3
g183
tp338
a(I1
I3
I3
I1
g187
tp339
a(I2
I1
I1
I2
g187
tp340
a(I2
I1
I2
I1
g183
tp341
a(I2
I3
I2
I3
g183
tp342
a(I2
I3
I3
I2
g187
tp343
a(I3
I1
I1
I3
g187
tp344
a(I3
I1
I3
I1
g183
tp345
a(I3
I2
I2
I3
g187
tp346
a(I3
I2
I3
I2
g183
tp347
aas((I0
I1
tp348
(I1
I0
tp349
(I1
I0
tp350
(I0
I1
tp351
tp352
(lp353
(lp354
(I1
I1
I1
I1
I1
tp355
a(I1
I1
I2
I2
I1
tp356
a(I1
I1
I3
I3
I1
tp357
a(I2
I2
I1
I1
I1
tp358
a(I2
I2
I2
I2
I1
tp359
a(I2
I2
I3
I3
I1
tp360
a(I3
I3
I1
I1
I1
tp361
a(I3
I3
I2
I2
I1
tp362
a(I3
I3
I3
I3
I1
tp363
aa(lp364
(I1
I1
I1
I1
g255
tp365
a(I1
I1
I2
I2
g259
tp366
a(I1
I1
I3
I3
g259
tp367
a(I1
I2
I1
I2
g267
tp368
a(I1
I3
I1
I3
g267
tp369
a(I2
I1
I2
I1
g267
tp370
a(I2
I2
I1
I1
g259
tp371
a(I2
I2
I2
I2
g255
tp372
a(I2
I2
I3
I3
g259
tp373
a(I2
I3
I2
I3
g267
tp374
a(I3
I1
I3
I1
g267
tp375
a(I3
I2
I3
I2
g267
tp376
a(I3
I3
I1
I1
g259
tp377
a(I3
I3
I2
I2
g259
tp378
a(I3
I3
I3
I3
g255
tp379
aas((I1
I0
tp380
(I0
I1
tp381
(I1
I0
tp382
(I0
I1
tp383
tp384
(lp385
(lp386
(I1
I1
I1
I1
I1
tp387
a(I1
I1
I2
I2
I1
tp388
a(I1
I1
I3
I3
I1
tp389
a(I2
I2
I1
I1
I1
tp390
a(I2
I2
I2
I2
I1
tp391
a(I2
I2
I3
I3
I1
tp392
a(I3
I3
I1
I1
I1
tp393
a(I3
I3
I2
I2
I1
tp394
a(I3
I3
I3
I3
I1
tp395
aa(lp396
(I1
I1
I1
I1
g255
tp397
a(I1
I1
I2
I2
g259
tp398
a(I1
I1
I3
I3
g259
tp399
a(I1
I2
I2
I1
g267
tp400
a(I1
I3
I3
I1
g267
tp401
a(I2
I1
I1
I2
g267
tp402
a(I2
I2
I1
I1
g259
tp403
a(I2
I2
I2
I2
g255
tp404
a(I2
I2
I3
I3
g259
tp405
a(I2
I3
I3
I2
g267
tp406
a(I3
I1
I1
I3
g267
tp407
a(I3
I2
I2
I3
g267
tp408
a(I3
I3
I1
I1
g259
tp409
a(I3
I3
I2
I2
g259
tp410
a(I3
I3
I3
I3
g255
tp411
aassS'Matrices'
p412
(dp413
g21
(dp414
g25
g26
sg27
(((I0
g34
I0
tp415
(g34
I0
I0
tp416
(I0
I0
I0
tp417
tp418
((I0
I0
I0
tp419
(I0
I0
g34
tp420
(I0
g34
I0
tp421
tp422
((I0
I0
g51
tp423
(I0
I0
I0
tp424
(g40
I0
I0
tp425
tp426
((I0
g40
I0
tp427
(g51
I0
I0
tp428
(I0
I0
I0
tp429
tp430
((I0
I0
I0
tp431
(I0
I0
g40
tp432
(I0
g51
I0
tp433
tp434
((I0
I0
g48
tp435
(I0
I0
I0
tp436
(g48
I0
I0
tp437
tp438
((g31
(g55
g63
tp439
Rp440
(dp441
bI0
I0
tp442
(I0
g31
(g69
g63
tp443
Rp444
(dp445
bI0
tp446
(I0
I0
g444
tp447
tp448
((I0
I0
I0
tp449
(I0
g34
I0
tp450
(I0
I0
g48
tp451
tp452
tp453
ssg122
(dp454
g25
g126
sg27
(((I0
g48
I0
tp455
(g48
I0
I0
tp456
(I0
I0
I0
tp457
tp458
((I0
I0
I0
tp459
(I0
I0
g48
tp460
(I0
g48
I0
tp461
tp462
((I0
I0
g51
tp463
(I0
I0
I0
tp464
(g40
I0
I0
tp465
tp466
((I0
g40
I0
tp467
(g51
I0
I0
tp468
(I0
I0
I0
tp469
tp470
((I0
I0
I0
tp471
(I0
I0
g40
tp472
(I0
g51
I0
tp473
tp474
((I0
I0
g34
tp475
(I0
I0
I0
tp476
(g34
I0
I0
tp477
tp478
((g31
(g86
g63
tp479
Rp480
(dp481
bI0
I0
tp482
(I0
g31
(g92
g63
tp483
Rp484
(dp485
bI0
tp486
(I0
I0
g484
tp487
tp488
((I0
I0
I0
tp489
(I0
g48
I0
tp490
(I0
I0
g34
tp491
tp492
tp493
sssS'Fond'
p494
(I1
I0
tp495
sS'Trilinear'
p496
(dp497
((I1
I0
tp498
(I1
I0
tp499
(I1
I0
tp500
tp501
(lp502
(I1
I2
I3
g31
(g48
g252
g57
(g60
g212
tp503
Rp504
(dp505
btp506
Rp507
(dp508
btp509
a(I1
I3
I2
g31
(g34
g252
g504
tp510
Rp511
(dp512
btp513
a(I2
I1
I3
g511
tp514
a(I2
I3
I1
g507
tp515
a(I3
I1
I2
g507
tp516
a(I3
I2
I1
g511
tp517
as((I0
I1
tp518
(I0
I1
tp519
(I0
I1
tp520
tp521
(lp522
(I1
I2
I3
g507
tp523
a(I1
I3
I2
g511
tp524
a(I2
I1
I3
g511
tp525
a(I2
I3
I1
g507
tp526
a(I3
I1
I2
g507
tp527
a(I3
I2
I1
g511
tp528
assS'HBAmat'
p529
(dp530
g21
(dp531
sg122
(dp532
ssS'Casimir'
p533
(dp534
(I0
I1
tp535
g32
(I4
I3
tp536
Rp537
(dp538
bs(I1
I0
tp539
g537
ssS'DynkinToDim'
p540
(dp541
(I0
I1
tp542
I3
s(I1
I0
tp543
I3
s(I0
I0
tp544
I0
ssS'Struc'
p545
cnumpy.core.multiarray
_reconstruct
p546
(cnumpy
ndarray
p547
(I0
tp548
S'b'
p549
tp550
Rp551
(I1
(I8
I8
I8
tp552
cnumpy
dtype
p553
(S'O8'
p554
I0
I1
tp555
Rp556
(I3
S'|'
p557
NNNI-1
I-1
I63
tp558
bI00
(lp559
g29
ag29
ag29
ag29
ag29
ag29
ag29
ag29
ag29
ag29
ag48
ag29
ag29
ag29
ag29
ag29
ag29
ag34
ag29
ag29
ag29
ag29
ag29
ag29
ag29
ag29
ag29
ag29
ag29
ag29
ag31
(g34
g63
tp560
Rp561
(dp562
bag48
ag29
ag29
ag29
ag29
ag29
ag34
ag29
ag29
ag29
ag29
ag29
ag29
ag48
ag29
ag29
ag29
ag29
ag29
ag29
ag31
(g48
g63
tp563
Rp564
(dp565
bag29
ag29
ag29
ag29
ag29
ag29
ag29
ag34
ag29
ag29
ag29
ag29
ag29
ag29
ag34
ag29
ag29
ag29
ag29
ag29
ag29
ag29
ag29
ag29
ag29
ag29
ag29
ag29
ag48
ag29
ag29
ag29
ag29
ag29
ag29
ag29
ag29
ag29
ag29
ag29
ag29
ag48
ag29
ag29
ag29
ag29
ag29
ag29
ag29
ag29
ag29
acsympy.core.numbers
NegativeOne
p566
(tRp567
(dp568
bag29
ag29
ag29
ag34
ag29
ag29
ag29
ag29
ag29
ag29
ag29
ag29
ag29
ag29
ag29
ag29
ag29
ag29
ag29
ag29
acsympy.core.numbers
One
p569
(tRp570
(dp571
bag29
ag29
ag29
ag29
ag48
ag29
ag29
ag29
ag29
ag29
ag29
ag34
ag29
ag29
ag29
ag29
ag29
ag29
ag29
ag29
ag29
ag29
ag29
ag29
ag29
ag29
ag29
ag29
ag29
ag29
ag29
ag34
ag29
ag29
ag29
ag29
ag29
ag29
ag48
ag29
ag29
ag29
ag29
ag29
ag29
ag29
ag29
ag29
ag29
ag564
ag48
ag29
ag29
ag29
ag29
ag29
ag561
ag29
ag29
ag29
ag29
ag29
ag29
ag29
ag34
ag29
ag29
ag29
ag29
ag29
ag29
ag29
ag29
ag564
ag34
ag29
ag29
ag29
ag29
ag29
ag34
ag29
ag29
ag29
ag29
ag29
ag29
ag48
ag29
ag29
ag29
ag29
ag29
ag29
ag29
ag29
ag29
ag29
ag29
ag29
ag29
ag34
ag29
ag29
ag29
ag29
ag29
ag29
ag48
ag29
ag29
ag29
ag29
ag29
ag29
ag561
ag29
ag29
ag29
ag29
ag29
ag29
ag29
ag48
ag29
ag29
ag29
ag29
ag29
ag29
ag29
ag29
ag29
ag29
ag29
ag29
ag48
ag29
ag29
ag29
ag29
ag29
ag29
ag29
ag29
ag29
ag570
ag29
ag29
ag29
ag34
ag29
ag29
ag29
ag29
ag29
ag29
ag48
ag29
ag29
ag29
ag29
ag29
ag29
ag29
ag29
ag29
ag29
ag29
ag29
ag29
ag34
ag29
ag29
ag29
ag29
ag29
ag29
ag29
ag29
ag29
ag29
ag29
ag29
ag29
ag29
ag29
ag29
ag567
ag29
ag29
ag29
ag29
ag29
ag29
ag29
ag29
ag29
ag29
ag34
ag29
ag29
ag29
ag29
ag29
ag29
ag48
ag29
ag29
ag29
ag29
ag29
ag29
ag29
ag29
ag29
ag29
ag561
ag34
ag29
ag34
ag29
ag29
ag29
ag29
ag29
ag29
ag48
ag29
ag29
ag29
ag29
ag29
ag29
ag29
ag29
ag29
ag29
ag29
ag29
ag29
ag29
ag29
ag29
ag29
ag564
ag29
ag29
ag29
ag29
ag29
ag29
ag29
ag48
ag29
ag29
ag29
ag29
ag29
ag29
ag29
ag29
ag561
ag29
ag29
ag29
ag29
ag29
ag29
ag29
ag29
ag29
ag29
ag29
ag29
ag29
ag29
ag29
ag29
ag29
ag564
ag29
ag29
ag564
ag29
ag29
ag29
ag29
ag29
ag29
ag29
ag29
ag29
ag29
ag29
ag29
ag29
ag29
ag29
ag29
ag29
ag561
ag29
ag29
ag29
ag29
ag29
ag29
ag29
ag29
ag29
ag29
ag29
ag29
ag29
ag29
ag29
ag29
ag29
ag29
ag29
ag29
ag29
ag29
ag29
ag29
ag48
ag29
ag29
ag29
ag29
ag29
ag29
ag29
ag29
ag567
ag29
ag29
ag29
ag29
ag29
ag29
ag29
ag29
ag48
ag29
ag29
ag34
ag29
ag29
ag29
ag29
ag29
ag29
ag29
ag29
ag570
ag29
ag29
ag29
ag29
ag29
ag29
ag29
ag29
ag34
ag29
ag29
ag29
ag29
ag29
ag29
ag29
ag29
ag29
ag29
ag29
ag29
ag29
ag29
ag29
ag29
ag29
ag29
ag29
ag29
ag29
atp572
bsS'Adj'
p573
(I1
I1
tp574
sS'DimToDynkin'
p575
(dp576
I1
(I0
I0
tp577
sI3
g543
sI-3
(I0
I1
tp578
sssS'SU2'
p579
(dp580
g3
(dp581
((I1
I01
tp582
(I1
tp583
tp584
(lp585
(I1
I1
I1
tp586
a(I2
I2
I1
tp587
as((I2
tp588
(I2
I01
tp589
tp590
(lp591
(I1
I1
I1
tp592
a(I2
I2
I1
tp593
a(I3
I3
I1
tp594
as((I1
I01
tp595
(I1
I01
tp596
tp597
(lp598
(I1
I2
I-1
tp599
a(I2
I1
I1
tp600
as((I1
tp601
(I1
I01
tp602
tp603
(lp604
(I1
I1
I1
tp605
a(I2
I2
I1
tp606
as((I1
tp607
(I1
tp608
tp609
(lp610
(I1
I2
I-1
tp611
a(I2
I1
I1
tp612
as((I2
I01
tp613
(I2
tp614
tp615
(lp616
(I1
I1
I1
tp617
a(I2
I2
I1
tp618
a(I3
I3
I1
tp619
as((I2
I01
tp620
(I2
I01
tp621
tp622
(lp623
(I1
I3
I1
tp624
a(I2
I2
I-1
tp625
a(I3
I1
I1
tp626
as((I2
tp627
(I2
tp628
tp629
(lp630
(I1
I3
I1
tp631
a(I2
I2
I-1
tp632
a(I3
I1
I1
tp633
assg19
(dp634
(I2
tp635
(dp636
(I0
I1
tp637
(dp638
g25
(I3
I3
tp639
sg27
((g29
g31
(g48
g37
g252
tp640
Rp641
(dp642
bg29
g641
g29
g641
g29
g641
g29
tp643
(g29
g29
g29
g29
g29
g29
g29
g29
g29
tp644
(g37
g29
g29
g29
g29
g29
g29
g29
g31
(g567
g37
tp645
Rp646
(dp647
btp648
tp649
ss(I1
I0
tp650
(dp651
g25
g639
sg27
((g29
g31
(g34
g37
g252
tp652
Rp653
(dp654
bg29
g653
g29
g653
g29
g653
g29
tp655
(g29
g29
g29
g29
g29
g29
g29
g29
g29
tp656
(g646
g29
g29
g29
g29
g29
g29
g29
g37
tp657
tp658
ss(I0
I0
tp659
(dp660
g25
g639
sg27
((g29
g29
g29
g29
g29
g29
g29
g29
g29
tp661
(g29
g653
g29
g641
g29
g653
g29
g641
g29
tp662
(g29
g29
g29
g29
g29
g29
g29
g29
g29
tp663
tp664
ss(I1
I1
tp665
(dp666
g25
g639
sg27
((g29
g29
g29
g29
g29
g29
g29
g29
g29
tp667
(g29
g653
g29
g641
g29
g653
g29
g641
g29
tp668
(g29
g29
g29
g29
g29
g29
g29
g29
g29
tp669
tp670
sss(I1
I01
tp671
(dp672
(I0
I1
tp673
(dp674
g25
(I2
I2
tp675
sg27
((g29
g40
g40
g29
tp676
(g29
g29
g29
g29
tp677
(g40
g29
g29
g51
tp678
tp679
ss(I1
I0
tp680
(dp681
g25
g675
sg27
((g29
g51
g51
g29
tp682
(g29
g29
g29
g29
tp683
(g51
g29
g29
g40
tp684
tp685
ss(I0
I0
tp686
(dp687
g25
g675
sg27
((g29
g29
g29
g29
tp688
(g29
g40
g51
g29
tp689
(g29
g29
g29
g29
tp690
tp691
ss(I1
I1
tp692
(dp693
g25
g675
sg27
((g29
g29
g29
g29
tp694
(g29
g40
g51
g29
tp695
(g29
g29
g29
g29
tp696
tp697
sss(I2
I01
tp698
(dp699
(I0
I1
tp700
(dp701
g25
(I3
I3
tp702
sg27
((g29
g653
g29
g653
g29
g653
g29
g653
g29
tp703
(g29
g29
g29
g29
g29
g29
g29
g29
g29
tp704
(g646
g29
g29
g29
g29
g29
g29
g29
g37
tp705
tp706
ss(I1
I0
tp707
(dp708
g25
g702
sg27
((g29
g641
g29
g641
g29
g641
g29
g641
g29
tp709
(g29
g29
g29
g29
g29
g29
g29
g29
g29
tp710
(g37
g29
g29
g29
g29
g29
g29
g29
g646
tp711
tp712
ss(I0
I0
tp713
(dp714
g25
g702
sg27
((g29
g29
g29
g29
g29
g29
g29
g29
g29
tp715
(g29
g653
g29
g641
g29
g653
g29
g641
g29
tp716
(g29
g29
g29
g29
g29
g29
g29
g29
g29
tp717
tp718
ss(I1
I1
tp719
(dp720
g25
g702
sg27
((g29
g29
g29
g29
g29
g29
g29
g29
g29
tp721
(g29
g653
g29
g641
g29
g653
g29
g641
g29
tp722
(g29
g29
g29
g29
g29
g29
g29
g29
g29
tp723
tp724
sss(I1
tp725
(dp726
(I0
I1
tp727
(dp728
g25
(I2
I2
tp729
sg27
((g29
g51
g51
g29
tp730
(g29
g29
g29
g29
tp731
(g51
g29
g29
g40
tp732
tp733
ss(I1
I0
tp734
(dp735
g25
g729
sg27
((g29
g40
g40
g29
tp736
(g29
g29
g29
g29
tp737
(g40
g29
g29
g51
tp738
tp739
ss(I0
I0
tp740
(dp741
g25
g729
sg27
((g29
g29
g29
g29
tp742
(g29
g40
g51
g29
tp743
(g29
g29
g29
g29
tp744
tp745
ss(I1
I1
tp746
(dp747
g25
g729
sg27
((g29
g29
g29
g29
tp748
(g29
g40
g51
g29
tp749
(g29
g29
g29
g29
tp750
tp751
ssssg169
(dp752
(I2
tp753
I2
s(I1
I01
tp754
g48
s(I2
I01
tp755
I2
s(I1
tp756
g48
ssg173
(dp757
((I1
tp758
(I1
tp759
(I2
I01
tp760
(I2
tp761
tp762
(lp763
(lp764
(I1
I2
I1
I1
I-1
tp765
a(I1
I2
I2
I2
I-1
tp766
a(I1
I2
I3
I3
I-1
tp767
a(I2
I1
I1
I1
I1
tp768
a(I2
I1
I2
I2
I1
tp769
a(I2
I1
I3
I3
I1
tp770
aa(lp771
(I1
I1
I1
I2
I1
tp772
a(I1
I1
I2
I3
I1
tp773
a(I1
I2
I1
I1
g255
tp774
a(I1
I2
I3
I3
g31
(g48
g252
tp775
Rp776
(dp777
btp778
a(I2
I1
I1
I1
g255
tp779
a(I2
I1
I3
I3
g776
tp780
a(I2
I2
I2
I1
I-1
tp781
a(I2
I2
I3
I2
I-1
tp782
aas((I1
tp783
(I2
I01
tp784
(I1
tp785
(I2
tp786
tp787
(lp788
(lp789
(I1
I1
I1
I2
g31
(g55
g205
tp790
Rp791
(dp792
btp793
a(I1
I1
I2
I1
g31
(g32
(I2
I3
tp794
Rp795
(dp796
bg63
tp797
Rp798
(dp799
btp800
a(I1
I2
I1
I3
g791
tp801
a(I1
I2
I2
I2
g31
(g86
g63
tp802
Rp803
(dp804
btp805
a(I2
I2
I1
I2
g31
(g55
g63
tp806
Rp807
(dp808
btp809
a(I2
I2
I2
I1
g31
(g86
g205
tp810
Rp811
(dp812
btp813
a(I2
I3
I1
I3
g31
(g32
(I-2
I3
tp814
Rp815
(dp816
bg63
tp817
Rp818
(dp819
btp820
a(I2
I3
I2
I2
g811
tp821
aa(lp822
(I1
I1
I1
I2
g807
tp823
a(I1
I1
I2
I1
g31
(g92
g205
tp824
Rp825
(dp826
btp827
a(I1
I2
I1
I3
g807
tp828
a(I1
I2
I2
I2
g791
tp829
a(I1
I3
I2
I3
g31
(g34
g205
tp830
Rp831
(dp832
btp833
a(I2
I1
I1
I1
g208
tp834
a(I2
I2
I1
I2
g811
tp835
a(I2
I2
I2
I1
g803
tp836
a(I2
I3
I1
I3
g31
(g69
g205
tp837
Rp838
(dp839
btp840
a(I2
I3
I2
I2
g803
tp841
aas((I1
tp842
(I1
I01
tp843
(I2
tp844
(I2
I01
tp845
tp846
(lp847
(lp848
(I1
I1
I1
I1
I1
tp849
a(I1
I1
I2
I2
I1
tp850
a(I1
I1
I3
I3
I1
tp851
a(I2
I2
I1
I1
I1
tp852
a(I2
I2
I2
I2
I1
tp853
a(I2
I2
I3
I3
I1
tp854
aa(lp855
(I1
I1
I1
I1
g255
tp856
a(I1
I1
I3
I3
g776
tp857
a(I1
I2
I2
I1
I-1
tp858
a(I1
I2
I3
I2
I-1
tp859
a(I2
I1
I1
I2
I-1
tp860
a(I2
I1
I2
I3
I-1
tp861
a(I2
I2
I1
I1
g776
tp862
a(I2
I2
I3
I3
g255
tp863
aas((I2
I01
tp864
(I1
tp865
(I2
I01
tp866
(I1
I01
tp867
tp868
(lp869
(lp870
(I1
I1
I2
I2
g811
tp871
a(I1
I1
I3
I1
g818
tp872
a(I2
I1
I1
I2
g791
tp873
a(I2
I1
I2
I1
g803
tp874
a(I2
I2
I2
I2
g803
tp875
a(I2
I2
I3
I1
g791
tp876
a(I3
I2
I1
I2
g818
tp877
a(I3
I2
I2
I1
g811
tp878
aa(lp879
(I1
I1
I2
I2
g803
tp880
a(I1
I1
I3
I1
g838
tp881
a(I1
I2
I3
I2
g208
tp882
a(I2
I1
I1
I2
g807
tp883
a(I2
I1
I2
I1
g791
tp884
a(I2
I2
I2
I2
g791
tp885
a(I2
I2
I3
I1
g807
tp886
a(I3
I1
I1
I1
g208
tp887
a(I3
I2
I1
I2
g838
tp888
a(I3
I2
I2
I1
g803
tp889
aas((I2
tp890
(I1
I01
tp891
(I1
tp892
(I2
I01
tp893
tp894
(lp895
(lp896
(I1
I1
I1
I1
g818
tp897
a(I1
I1
I2
I2
g791
tp898
a(I2
I1
I1
I2
g807
tp899
a(I2
I1
I2
I3
g791
tp900
a(I2
I2
I1
I1
g791
tp901
a(I2
I2
I2
I2
g807
tp902
a(I3
I2
I1
I2
g791
tp903
a(I3
I2
I2
I3
g818
tp904
aa(lp905
(I1
I1
I1
I1
g838
tp906
a(I1
I1
I2
I2
g807
tp907
a(I1
I2
I2
I1
g208
tp908
a(I2
I1
I1
I2
g811
tp909
a(I2
I1
I2
I3
g807
tp910
a(I2
I2
I1
I1
g807
tp911
a(I2
I2
I2
I2
g811
tp912
a(I3
I1
I1
I3
g208
tp913
a(I3
I2
I1
I2
g807
tp914
a(I3
I2
I2
I3
g838
tp915
aas((I2
tp916
(I1
I01
tp917
(I2
tp918
(I1
tp919
tp920
(lp921
(lp922
(I1
I1
I2
I2
g791
tp923
a(I1
I1
I3
I1
g798
tp924
a(I2
I1
I1
I2
g811
tp925
a(I2
I1
I2
I1
g807
tp926
a(I2
I2
I2
I2
g807
tp927
a(I2
I2
I3
I1
g811
tp928
a(I3
I2
I1
I2
g798
tp929
a(I3
I2
I2
I1
g791
tp930
aa(lp931
(I1
I1
I2
I2
g803
tp932
a(I1
I1
I3
I1
g838
tp933
a(I1
I2
I3
I2
g208
tp934
a(I2
I1
I1
I2
g807
tp935
a(I2
I1
I2
I1
g791
tp936
a(I2
I2
I2
I2
g791
tp937
a(I2
I2
I3
I1
g807
tp938
a(I3
I1
I1
I1
g208
tp939
a(I3
I2
I1
I2
g838
tp940
a(I3
I2
I2
I1
g803
tp941
aas((I1
tp942
(I2
tp943
(I2
I01
tp944
(I1
I01
tp945
tp946
(lp947
(lp948
(I1
I2
I1
I2
g791
tp949
a(I1
I2
I2
I1
g803
tp950
a(I1
I3
I2
I2
g791
tp951
a(I1
I3
I3
I1
g798
tp952
a(I2
I1
I1
I2
g798
tp953
a(I2
I1
I2
I1
g791
tp954
a(I2
I2
I2
I2
g803
tp955
a(I2
I2
I3
I1
g791
tp956
aa(lp957
(I1
I1
I1
I1
g831
tp958
a(I1
I2
I1
I2
g807
tp959
a(I1
I2
I2
I1
g791
tp960
a(I1
I3
I2
I2
g807
tp961
a(I1
I3
I3
I1
g825
tp962
a(I2
I1
I1
I2
g825
tp963
a(I2
I1
I2
I1
g807
tp964
a(I2
I2
I2
I2
g791
tp965
a(I2
I2
I3
I1
g807
tp966
a(I2
I3
I3
I2
g831
tp967
aas((I1
tp968
(I1
I01
tp969
(I1
tp970
(I1
tp971
tp972
(lp973
(lp974
(I1
I1
I1
I2
I1
tp975
a(I1
I1
I2
I1
I-1
tp976
a(I2
I2
I1
I2
I1
tp977
a(I2
I2
I2
I1
I-1
tp978
aa(lp979
(I1
I1
I1
I2
g803
tp980
a(I1
I1
I2
I1
g803
tp981
a(I1
I2
I2
I2
g798
tp982
a(I2
I1
I1
I1
g818
tp983
a(I2
I2
I1
I2
g807
tp984
a(I2
I2
I2
I1
g807
tp985
aas((I2
tp986
(I1
tp987
(I1
tp988
(I2
I01
tp989
tp990
(lp991
(lp992
(I1
I2
I1
I1
g818
tp993
a(I1
I2
I2
I2
g791
tp994
a(I2
I1
I1
I1
g811
tp995
a(I2
I1
I2
I2
g803
tp996
a(I2
I2
I1
I2
g807
tp997
a(I2
I2
I2
I3
g791
tp998
a(I3
I1
I1
I2
g811
tp999
a(I3
I1
I2
I3
g798
tp1000
aa(lp1001
(I1
I1
I2
I1
g831
tp1002
a(I1
I2
I1
I1
g838
tp1003
a(I1
I2
I2
I2
g807
tp1004
a(I2
I1
I1
I1
g803
tp1005
a(I2
I1
I2
I2
g791
tp1006
a(I2
I2
I1
I2
g811
tp1007
a(I2
I2
I2
I3
g807
tp1008
a(I3
I1
I1
I2
g803
tp1009
a(I3
I1
I2
I3
g825
tp1010
a(I3
I2
I1
I3
g208
tp1011
aas((I2
I01
tp1012
(I2
I01
tp1013
(I1
tp1014
(I1
tp1015
tp1016
(lp1017
(lp1018
(I1
I3
I1
I2
I1
tp1019
a(I1
I3
I2
I1
I-1
tp1020
a(I2
I2
I1
I2
I-1
tp1021
a(I2
I2
I2
I1
I1
tp1022
a(I3
I1
I1
I2
I1
tp1023
a(I3
I1
I2
I1
I-1
tp1024
aa(lp1025
(I1
I2
I1
I1
I1
tp1026
a(I1
I3
I1
I2
g776
tp1027
a(I1
I3
I2
I1
g776
tp1028
a(I2
I1
I1
I1
I-1
tp1029
a(I2
I3
I2
I2
I1
tp1030
a(I3
I1
I1
I2
g255
tp1031
a(I3
I1
I2
I1
g255
tp1032
a(I3
I2
I2
I2
I-1
tp1033
aas((I1
tp1034
(I1
I01
tp1035
(I2
I01
tp1036
(I2
tp1037
tp1038
(lp1039
(lp1040
(I1
I1
I1
I1
I1
tp1041
a(I1
I1
I2
I2
I1
tp1042
a(I1
I1
I3
I3
I1
tp1043
a(I2
I2
I1
I1
I1
tp1044
a(I2
I2
I2
I2
I1
tp1045
a(I2
I2
I3
I3
I1
tp1046
aa(lp1047
(I1
I1
I1
I1
g255
tp1048
a(I1
I1
I3
I3
g776
tp1049
a(I1
I2
I1
I2
I-1
tp1050
a(I1
I2
I2
I3
I-1
tp1051
a(I2
I1
I2
I1
I-1
tp1052
a(I2
I1
I3
I2
I-1
tp1053
a(I2
I2
I1
I1
g776
tp1054
a(I2
I2
I3
I3
g255
tp1055
aas((I2
I01
tp1056
(I2
tp1057
(I2
I01
tp1058
(I2
tp1059
tp1060
(lp1061
(lp1062
(I1
I1
I1
I1
I1
tp1063
a(I1
I1
I2
I2
I1
tp1064
a(I1
I1
I3
I3
I1
tp1065
a(I2
I2
I1
I1
I1
tp1066
a(I2
I2
I2
I2
I1
tp1067
a(I2
I2
I3
I3
I1
tp1068
a(I3
I3
I1
I1
I1
tp1069
a(I3
I3
I2
I2
I1
tp1070
a(I3
I3
I3
I3
I1
tp1071
aa(lp1072
(I1
I1
I1
I1
g187
tp1073
a(I1
I1
I3
I3
g183
tp1074
a(I1
I2
I2
I1
g187
tp1075
a(I1
I2
I3
I2
g187
tp1076
a(I2
I1
I1
I2
g187
tp1077
a(I2
I1
I2
I3
g187
tp1078
a(I2
I3
I2
I1
g187
tp1079
a(I2
I3
I3
I2
g187
tp1080
a(I3
I2
I1
I2
g187
tp1081
a(I3
I2
I2
I3
g187
tp1082
a(I3
I3
I1
I1
g183
tp1083
a(I3
I3
I3
I3
g187
tp1084
aa(lp1085
(I1
I1
I1
I1
g31
(g32
(I1
I10
tp1086
Rp1087
(dp1088
bg57
(g58
(I5
tp1089
Rp1090
(dp1091
bg48
tp1092
Rp1093
(dp1094
btp1095
Rp1096
(dp1097
btp1098
a(I1
I1
I2
I2
g31
(g32
(I-1
I5
tp1099
Rp1100
(dp1101
bg1093
tp1102
Rp1103
(dp1104
btp1105
a(I1
I1
I3
I3
g1096
tp1106
a(I1
I2
I2
I1
g31
(g32
(I3
I10
tp1107
Rp1108
(dp1109
bg1093
tp1110
Rp1111
(dp1112
btp1113
a(I1
I2
I3
I2
g31
(g32
(I-3
I10
tp1114
Rp1115
(dp1116
bg1093
tp1117
Rp1118
(dp1119
btp1120
a(I1
I3
I3
I1
g31
(g32
(I3
I5
tp1121
Rp1122
(dp1123
bg1093
tp1124
Rp1125
(dp1126
btp1127
a(I2
I1
I1
I2
g1111
tp1128
a(I2
I1
I2
I3
g1118
tp1129
a(I2
I2
I1
I1
g1103
tp1130
a(I2
I2
I2
I2
g31
(g32
(I2
I5
tp1131
Rp1132
(dp1133
bg1093
tp1134
Rp1135
(dp1136
btp1137
a(I2
I2
I3
I3
g1103
tp1138
a(I2
I3
I2
I1
g1118
tp1139
a(I2
I3
I3
I2
g1111
tp1140
a(I3
I1
I1
I3
g1125
tp1141
a(I3
I2
I1
I2
g1118
tp1142
a(I3
I2
I2
I3
g1111
tp1143
a(I3
I3
I1
I1
g1096
tp1144
a(I3
I3
I2
I2
g1103
tp1145
a(I3
I3
I3
I3
g1096
tp1146
aas((I1
tp1147
(I1
tp1148
(I1
tp1149
(I1
I01
tp1150
tp1151
(lp1152
(lp1153
(I1
I2
I1
I1
I-1
tp1154
a(I1
I2
I2
I2
I-1
tp1155
a(I2
I1
I1
I1
I1
tp1156
a(I2
I1
I2
I2
I1
tp1157
aa(lp1158
(I1
I1
I2
I1
g798
tp1159
a(I1
I2
I1
I1
g807
tp1160
a(I1
I2
I2
I2
g803
tp1161
a(I2
I1
I1
I1
g807
tp1162
a(I2
I1
I2
I2
g803
tp1163
a(I2
I2
I1
I2
g818
tp1164
aas((I2
I01
tp1165
(I2
tp1166
(I1
I01
tp1167
(I1
tp1168
tp1169
(lp1170
(lp1171
(I1
I1
I1
I1
I1
tp1172
a(I1
I1
I2
I2
I1
tp1173
a(I2
I2
I1
I1
I1
tp1174
a(I2
I2
I2
I2
I1
tp1175
a(I3
I3
I1
I1
I1
tp1176
a(I3
I3
I2
I2
I1
tp1177
aa(lp1178
(I1
I1
I1
I1
g776
tp1179
a(I1
I1
I2
I2
g255
tp1180
a(I1
I2
I2
I1
I1
tp1181
a(I2
I1
I1
I2
I1
tp1182
a(I2
I3
I2
I1
I1
tp1183
a(I3
I2
I1
I2
I1
tp1184
a(I3
I3
I1
I1
g255
tp1185
a(I3
I3
I2
I2
g776
tp1186
aas((I2
I01
tp1187
(I2
I01
tp1188
(I1
I01
tp1189
(I1
tp1190
tp1191
(lp1192
(lp1193
(I1
I3
I1
I1
I1
tp1194
a(I1
I3
I2
I2
I1
tp1195
a(I2
I2
I1
I1
I-1
tp1196
a(I2
I2
I2
I2
I-1
tp1197
a(I3
I1
I1
I1
I1
tp1198
a(I3
I1
I2
I2
I1
tp1199
aa(lp1200
(I1
I2
I2
I1
I1
tp1201
a(I1
I3
I1
I1
g255
tp1202
a(I1
I3
I2
I2
g776
tp1203
a(I2
I1
I2
I1
I-1
tp1204
a(I2
I3
I1
I2
I-1
tp1205
a(I3
I1
I1
I1
g776
tp1206
a(I3
I1
I2
I2
g255
tp1207
a(I3
I2
I1
I2
I1
tp1208
aas((I2
I01
tp1209
(I1
I01
tp1210
(I2
I01
tp1211
(I1
I01
tp1212
tp1213
(lp1214
(lp1215
(I1
I2
I2
I2
g811
tp1216
a(I1
I2
I3
I1
g818
tp1217
a(I2
I1
I2
I2
g807
tp1218
a(I2
I1
I3
I1
g811
tp1219
a(I2
I2
I1
I2
g791
tp1220
a(I2
I2
I2
I1
g803
tp1221
a(I3
I1
I1
I2
g798
tp1222
a(I3
I1
I2
I1
g791
tp1223
aa(lp1224
(I1
I1
I3
I2
g208
tp1225
a(I1
I2
I2
I2
g807
tp1226
a(I1
I2
I3
I1
g825
tp1227
a(I2
I1
I2
I2
g791
tp1228
a(I2
I1
I3
I1
g807
tp1229
a(I2
I2
I1
I2
g803
tp1230
a(I2
I2
I2
I1
g811
tp1231
a(I3
I1
I1
I2
g838
tp1232
a(I3
I1
I2
I1
g803
tp1233
a(I3
I2
I1
I1
g831
tp1234
aas((I1
I01
tp1235
(I1
tp1236
(I2
tp1237
(I2
I01
tp1238
tp1239
(lp1240
(lp1241
(I1
I1
I1
I1
I1
tp1242
a(I1
I1
I2
I2
I1
tp1243
a(I1
I1
I3
I3
I1
tp1244
a(I2
I2
I1
I1
I1
tp1245
a(I2
I2
I2
I2
I1
tp1246
a(I2
I2
I3
I3
I1
tp1247
aa(lp1248
(I1
I1
I1
I1
g776
tp1249
a(I1
I1
I3
I3
g255
tp1250
a(I1
I2
I1
I2
I1
tp1251
a(I1
I2
I2
I3
I1
tp1252
a(I2
I1
I2
I1
I1
tp1253
a(I2
I1
I3
I2
I1
tp1254
a(I2
I2
I1
I1
g255
tp1255
a(I2
I2
I3
I3
g776
tp1256
aas((I1
tp1257
(I2
I01
tp1258
(I2
I01
tp1259
(I1
I01
tp1260
tp1261
(lp1262
(lp1263
(I1
I1
I2
I2
g811
tp1264
a(I1
I1
I3
I1
g818
tp1265
a(I1
I2
I1
I2
g791
tp1266
a(I1
I2
I2
I1
g803
tp1267
a(I2
I2
I2
I2
g803
tp1268
a(I2
I2
I3
I1
g791
tp1269
a(I2
I3
I1
I2
g818
tp1270
a(I2
I3
I2
I1
g811
tp1271
aa(lp1272
(I1
I1
I2
I2
g803
tp1273
a(I1
I1
I3
I1
g838
tp1274
a(I1
I2
I1
I2
g807
tp1275
a(I1
I2
I2
I1
g791
tp1276
a(I1
I3
I1
I1
g208
tp1277
a(I2
I1
I3
I2
g208
tp1278
a(I2
I2
I2
I2
g791
tp1279
a(I2
I2
I3
I1
g807
tp1280
a(I2
I3
I1
I2
g838
tp1281
a(I2
I3
I2
I1
g803
tp1282
aas((I2
I01
tp1283
(I1
tp1284
(I1
I01
tp1285
(I2
tp1286
tp1287
(lp1288
(lp1289
(I1
I1
I1
I1
g798
tp1290
a(I1
I1
I2
I2
g811
tp1291
a(I2
I1
I1
I2
g803
tp1292
a(I2
I1
I2
I3
g811
tp1293
a(I2
I2
I1
I1
g811
tp1294
a(I2
I2
I2
I2
g803
tp1295
a(I3
I2
I1
I2
g811
tp1296
a(I3
I2
I2
I3
g798
tp1297
aa(lp1298
(I1
I1
I1
I1
g838
tp1299
a(I1
I1
I2
I2
g807
tp1300
a(I1
I2
I2
I1
g208
tp1301
a(I2
I1
I1
I2
g811
tp1302
a(I2
I1
I2
I3
g807
tp1303
a(I2
I2
I1
I1
g807
tp1304
a(I2
I2
I2
I2
g811
tp1305
a(I3
I1
I1
I3
g208
tp1306
a(I3
I2
I1
I2
g807
tp1307
a(I3
I2
I2
I3
g838
tp1308
aas((I2
I01
tp1309
(I2
tp1310
(I1
I01
tp1311
(I1
I01
tp1312
tp1313
(lp1314
(lp1315
(I1
I1
I1
I2
I-1
tp1316
a(I1
I1
I2
I1
I1
tp1317
a(I2
I2
I1
I2
I-1
tp1318
a(I2
I2
I2
I1
I1
tp1319
a(I3
I3
I1
I2
I-1
tp1320
a(I3
I3
I2
I1
I1
tp1321
aa(lp1322
(I1
I1
I1
I2
g776
tp1323
a(I1
I1
I2
I1
g776
tp1324
a(I1
I2
I2
I2
I1
tp1325
a(I2
I1
I1
I1
I-1
tp1326
a(I2
I3
I2
I2
I1
tp1327
a(I3
I2
I1
I1
I-1
tp1328
a(I3
I3
I1
I2
g255
tp1329
a(I3
I3
I2
I1
g255
tp1330
aas((I2
tp1331
(I2
tp1332
(I1
I01
tp1333
(I1
tp1334
tp1335
(lp1336
(lp1337
(I1
I3
I1
I1
I1
tp1338
a(I1
I3
I2
I2
I1
tp1339
a(I2
I2
I1
I1
I-1
tp1340
a(I2
I2
I2
I2
I-1
tp1341
a(I3
I1
I1
I1
I1
tp1342
a(I3
I1
I2
I2
I1
tp1343
aa(lp1344
(I1
I2
I1
I2
I-1
tp1345
a(I1
I3
I1
I1
g776
tp1346
a(I1
I3
I2
I2
g255
tp1347
a(I2
I1
I1
I2
I1
tp1348
a(I2
I3
I2
I1
I1
tp1349
a(I3
I1
I1
I1
g255
tp1350
a(I3
I1
I2
I2
g776
tp1351
a(I3
I2
I2
I1
I-1
tp1352
aas((I2
tp1353
(I2
I01
tp1354
(I2
tp1355
(I2
tp1356
tp1357
(lp1358
(lp1359
(I1
I1
I1
I3
I1
tp1360
a(I1
I1
I2
I2
I-1
tp1361
a(I1
I1
I3
I1
I1
tp1362
a(I2
I2
I1
I3
I1
tp1363
a(I2
I2
I2
I2
I-1
tp1364
a(I2
I2
I3
I1
I1
tp1365
a(I3
I3
I1
I3
I1
tp1366
a(I3
I3
I2
I2
I-1
tp1367
a(I3
I3
I3
I1
I1
tp1368
aa(lp1369
(I1
I1
I1
I3
g183
tp1370
a(I1
I1
I3
I1
g187
tp1371
a(I1
I2
I2
I3
g183
tp1372
a(I1
I2
I3
I2
g187
tp1373
a(I2
I1
I1
I2
g187
tp1374
a(I2
I1
I2
I1
g183
tp1375
a(I2
I3
I2
I3
g183
tp1376
a(I2
I3
I3
I2
g187
tp1377
a(I3
I2
I1
I2
g187
tp1378
a(I3
I2
I2
I1
g183
tp1379
a(I3
I3
I1
I3
g187
tp1380
a(I3
I3
I3
I1
g183
tp1381
aa(lp1382
(I1
I1
I1
I3
g31
(g32
(I-1
I10
tp1383
Rp1384
(dp1385
bg1093
tp1386
Rp1387
(dp1388
btp1389
a(I1
I1
I2
I2
g1103
tp1390
a(I1
I1
I3
I1
g1387
tp1391
a(I1
I2
I2
I3
g1118
tp1392
a(I1
I2
I3
I2
g1118
tp1393
a(I1
I3
I3
I3
g31
(g32
(I-3
I5
tp1394
Rp1395
(dp1396
bg1093
tp1397
Rp1398
(dp1399
btp1400
a(I2
I1
I1
I2
g1111
tp1401
a(I2
I1
I2
I1
g1111
tp1402
a(I2
I2
I1
I3
g31
(g32
(I1
I5
tp1403
Rp1404
(dp1405
bg1093
tp1406
Rp1407
(dp1408
btp1409
a(I2
I2
I2
I2
g1135
tp1410
a(I2
I2
I3
I1
g1407
tp1411
a(I2
I3
I2
I3
g1111
tp1412
a(I2
I3
I3
I2
g1111
tp1413
a(I3
I1
I1
I1
g1398
tp1414
a(I3
I2
I1
I2
g1118
tp1415
a(I3
I2
I2
I1
g1118
tp1416
a(I3
I3
I1
I3
g1387
tp1417
a(I3
I3
I2
I2
g1103
tp1418
a(I3
I3
I3
I1
g1387
tp1419
aas((I2
I01
tp1420
(I1
tp1421
(I1
I01
tp1422
(I2
I01
tp1423
tp1424
(lp1425
(lp1426
(I1
I1
I1
I3
g818
tp1427
a(I1
I1
I2
I2
g811
tp1428
a(I2
I1
I1
I2
g803
tp1429
a(I2
I1
I2
I1
g791
tp1430
a(I2
I2
I1
I3
g791
tp1431
a(I2
I2
I2
I2
g803
tp1432
a(I3
I2
I1
I2
g811
tp1433
a(I3
I2
I2
I1
g818
tp1434
aa(lp1435
(I1
I1
I1
I3
g838
tp1436
a(I1
I1
I2
I2
g803
tp1437
a(I1
I2
I2
I3
g208
tp1438
a(I2
I1
I1
I2
g791
tp1439
a(I2
I1
I2
I1
g807
tp1440
a(I2
I2
I1
I3
g807
tp1441
a(I2
I2
I2
I2
g791
tp1442
a(I3
I1
I1
I1
g208
tp1443
a(I3
I2
I1
I2
g803
tp1444
a(I3
I2
I2
I1
g838
tp1445
aas((I1
I01
tp1446
(I1
I01
tp1447
(I2
I01
tp1448
(I2
I01
tp1449
tp1450
(lp1451
(lp1452
(I1
I2
I1
I3
I-1
tp1453
a(I1
I2
I2
I2
I1
tp1454
a(I1
I2
I3
I1
I-1
tp1455
a(I2
I1
I1
I3
I1
tp1456
a(I2
I1
I2
I2
I-1
tp1457
a(I2
I1
I3
I1
I1
tp1458
aa(lp1459
(I1
I1
I2
I3
I1
tp1460
a(I1
I1
I3
I2
I-1
tp1461
a(I1
I2
I1
I3
g255
tp1462
a(I1
I2
I3
I1
g776
tp1463
a(I2
I1
I1
I3
g255
tp1464
a(I2
I1
I3
I1
g776
tp1465
a(I2
I2
I1
I2
I1
tp1466
a(I2
I2
I2
I1
I-1
tp1467
aas((I1
I01
tp1468
(I2
tp1469
(I1
tp1470
(I2
tp1471
tp1472
(lp1473
(lp1474
(I1
I1
I1
I3
g798
tp1475
a(I1
I1
I2
I2
g791
tp1476
a(I1
I2
I1
I2
g807
tp1477
a(I1
I2
I2
I1
g811
tp1478
a(I2
I2
I1
I3
g811
tp1479
a(I2
I2
I2
I2
g807
tp1480
a(I2
I3
I1
I2
g791
tp1481
a(I2
I3
I2
I1
g798
tp1482
aa(lp1483
(I1
I1
I1
I3
g838
tp1484
a(I1
I1
I2
I2
g803
tp1485
a(I1
I2
I1
I2
g791
tp1486
a(I1
I2
I2
I1
g807
tp1487
a(I1
I3
I1
I1
g208
tp1488
a(I2
I1
I2
I3
g208
tp1489
a(I2
I2
I1
I3
g807
tp1490
a(I2
I2
I2
I2
g791
tp1491
a(I2
I3
I1
I2
g803
tp1492
a(I2
I3
I2
I1
g838
tp1493
aas((I2
I01
tp1494
(I1
tp1495
(I1
tp1496
(I2
I01
tp1497
tp1498
(lp1499
(lp1500
(I1
I1
I1
I2
g811
tp1501
a(I1
I1
I2
I3
g798
tp1502
a(I2
I1
I1
I1
g791
tp1503
a(I2
I1
I2
I2
g807
tp1504
a(I2
I2
I1
I2
g803
tp1505
a(I2
I2
I2
I3
g811
tp1506
a(I3
I2
I1
I1
g818
tp1507
a(I3
I2
I2
I2
g791
tp1508
aa(lp1509
(I1
I1
I1
I2
g803
tp1510
a(I1
I1
I2
I3
g825
tp1511
a(I1
I2
I1
I3
g208
tp1512
a(I2
I1
I1
I1
g807
tp1513
a(I2
I1
I2
I2
g811
tp1514
a(I2
I2
I1
I2
g791
tp1515
a(I2
I2
I2
I3
g803
tp1516
a(I3
I1
I2
I1
g831
tp1517
a(I3
I2
I1
I1
g838
tp1518
a(I3
I2
I2
I2
g807
tp1519
aas((I1
I01
tp1520
(I2
tp1521
(I1
I01
tp1522
(I2
I01
tp1523
tp1524
(lp1525
(lp1526
(I1
I1
I1
I2
g791
tp1527
a(I1
I1
I2
I1
g798
tp1528
a(I1
I2
I1
I3
g791
tp1529
a(I1
I2
I2
I2
g803
tp1530
a(I2
I2
I1
I2
g807
tp1531
a(I2
I2
I2
I1
g811
tp1532
a(I2
I3
I1
I3
g818
tp1533
a(I2
I3
I2
I2
g811
tp1534
aa(lp1535
(I1
I1
I1
I2
g803
tp1536
a(I1
I1
I2
I1
g838
tp1537
a(I1
I2
I1
I3
g803
tp1538
a(I1
I2
I2
I2
g811
tp1539
a(I1
I3
I2
I3
g208
tp1540
a(I2
I1
I1
I1
g831
tp1541
a(I2
I2
I1
I2
g791
tp1542
a(I2
I2
I2
I1
g807
tp1543
a(I2
I3
I1
I3
g825
tp1544
a(I2
I3
I2
I2
g807
tp1545
aas((I2
I01
tp1546
(I1
I01
tp1547
(I1
tp1548
(I2
I01
tp1549
tp1550
(lp1551
(lp1552
(I1
I2
I1
I2
g811
tp1553
a(I1
I2
I2
I3
g798
tp1554
a(I2
I1
I1
I2
g807
tp1555
a(I2
I1
I2
I3
g791
tp1556
a(I2
I2
I1
I1
g791
tp1557
a(I2
I2
I2
I2
g807
tp1558
a(I3
I1
I1
I1
g798
tp1559
a(I3
I1
I2
I2
g811
tp1560
aa(lp1561
(I1
I1
I1
I3
g208
tp1562
a(I1
I2
I1
I2
g807
tp1563
a(I1
I2
I2
I3
g838
tp1564
a(I2
I1
I1
I2
g791
tp1565
a(I2
I1
I2
I3
g803
tp1566
a(I2
I2
I1
I1
g803
tp1567
a(I2
I2
I2
I2
g791
tp1568
a(I3
I1
I1
I1
g838
tp1569
a(I3
I1
I2
I2
g807
tp1570
a(I3
I2
I2
I1
g208
tp1571
aas((I1
tp1572
(I1
I01
tp1573
(I1
I01
tp1574
(I1
I01
tp1575
tp1576
(lp1577
(lp1578
(I1
I1
I1
I2
I-1
tp1579
a(I1
I1
I2
I1
I1
tp1580
a(I2
I2
I1
I2
I-1
tp1581
a(I2
I2
I2
I1
I1
tp1582
aa(lp1583
(I1
I1
I1
I2
g807
tp1584
a(I1
I1
I2
I1
g807
tp1585
a(I1
I2
I1
I1
g798
tp1586
a(I2
I1
I2
I2
g818
tp1587
a(I2
I2
I1
I2
g803
tp1588
a(I2
I2
I2
I1
g803
tp1589
aas((I1
I01
tp1590
(I2
I01
tp1591
(I1
I01
tp1592
(I2
I01
tp1593
tp1594
(lp1595
(lp1596
(I1
I2
I1
I3
g791
tp1597
a(I1
I2
I2
I2
g803
tp1598
a(I1
I3
I1
I2
g811
tp1599
a(I1
I3
I2
I1
g818
tp1600
a(I2
I1
I1
I3
g798
tp1601
a(I2
I1
I2
I2
g791
tp1602
a(I2
I2
I1
I2
g807
tp1603
a(I2
I2
I2
I1
g811
tp1604
aa(lp1605
(I1
I1
I2
I3
g208
tp1606
a(I1
I2
I1
I3
g807
tp1607
a(I1
I2
I2
I2
g791
tp1608
a(I1
I3
I1
I2
g803
tp1609
a(I1
I3
I2
I1
g838
tp1610
a(I2
I1
I1
I3
g825
tp1611
a(I2
I1
I2
I2
g807
tp1612
a(I2
I2
I1
I2
g811
tp1613
a(I2
I2
I2
I1
g803
tp1614
a(I2
I3
I1
I1
g831
tp1615
aas((I2
I01
tp1616
(I2
I01
tp1617
(I2
I01
tp1618
(I2
I01
tp1619
tp1620
(lp1621
(lp1622
(I1
I3
I1
I3
I1
tp1623
a(I1
I3
I2
I2
I-1
tp1624
a(I1
I3
I3
I1
I1
tp1625
a(I2
I2
I1
I3
I-1
tp1626
a(I2
I2
I2
I2
I1
tp1627
a(I2
I2
I3
I1
I-1
tp1628
a(I3
I1
I1
I3
I1
tp1629
a(I3
I1
I2
I2
I-1
tp1630
a(I3
I1
I3
I1
I1
tp1631
aa(lp1632
(I1
I2
I2
I3
g187
tp1633
a(I1
I2
I3
I2
g183
tp1634
a(I1
I3
I1
I3
g183
tp1635
a(I1
I3
I3
I1
g187
tp1636
a(I2
I1
I2
I3
g183
tp1637
a(I2
I1
I3
I2
g187
tp1638
a(I2
I3
I1
I2
g187
tp1639
a(I2
I3
I2
I1
g183
tp1640
a(I3
I1
I1
I3
g187
tp1641
a(I3
I1
I3
I1
g183
tp1642
a(I3
I2
I1
I2
g183
tp1643
a(I3
I2
I2
I1
g187
tp1644
aa(lp1645
(I1
I1
I3
I3
g1125
tp1646
a(I1
I2
I2
I3
g1118
tp1647
a(I1
I2
I3
I2
g1118
tp1648
a(I1
I3
I1
I3
g1096
tp1649
a(I1
I3
I2
I2
g1407
tp1650
a(I1
I3
I3
I1
g1096
tp1651
a(I2
I1
I2
I3
g1118
tp1652
a(I2
I1
I3
I2
g1118
tp1653
a(I2
I2
I1
I3
g1407
tp1654
a(I2
I2
I2
I2
g1135
tp1655
a(I2
I2
I3
I1
g1407
tp1656
a(I2
I3
I1
I2
g1118
tp1657
a(I2
I3
I2
I1
g1118
tp1658
a(I3
I1
I1
I3
g1096
tp1659
a(I3
I1
I2
I2
g1407
tp1660
a(I3
I1
I3
I1
g1096
tp1661
a(I3
I2
I1
I2
g1118
tp1662
a(I3
I2
I2
I1
g1118
tp1663
a(I3
I3
I1
I1
g1125
tp1664
aas((I1
tp1665
(I1
tp1666
(I1
I01
tp1667
(I1
I01
tp1668
tp1669
(lp1670
(lp1671
(I1
I2
I1
I2
I1
tp1672
a(I1
I2
I2
I1
I-1
tp1673
a(I2
I1
I1
I2
I-1
tp1674
a(I2
I1
I2
I1
I1
tp1675
aa(lp1676
(I1
I1
I1
I1
g818
tp1677
a(I1
I2
I1
I2
g807
tp1678
a(I1
I2
I2
I1
g807
tp1679
a(I2
I1
I1
I2
g807
tp1680
a(I2
I1
I2
I1
g807
tp1681
a(I2
I2
I2
I2
g818
tp1682
aas((I2
tp1683
(I2
tp1684
(I2
I01
tp1685
(I2
tp1686
tp1687
(lp1688
(lp1689
(I1
I3
I1
I1
I1
tp1690
a(I1
I3
I2
I2
I1
tp1691
a(I1
I3
I3
I3
I1
tp1692
a(I2
I2
I1
I1
I-1
tp1693
a(I2
I2
I2
I2
I-1
tp1694
a(I2
I2
I3
I3
I-1
tp1695
a(I3
I1
I1
I1
I1
tp1696
a(I3
I1
I2
I2
I1
tp1697
a(I3
I1
I3
I3
I1
tp1698
aa(lp1699
(I1
I2
I1
I2
g183
tp1700
a(I1
I2
I2
I3
g183
tp1701
a(I1
I3
I1
I1
g187
tp1702
a(I1
I3
I3
I3
g183
tp1703
a(I2
I1
I1
I2
g187
tp1704
a(I2
I1
I2
I3
g187
tp1705
a(I2
I3
I2
I1
g187
tp1706
a(I2
I3
I3
I2
g187
tp1707
a(I3
I1
I1
I1
g183
tp1708
a(I3
I1
I3
I3
g187
tp1709
a(I3
I2
I2
I1
g183
tp1710
a(I3
I2
I3
I2
g183
tp1711
aa(lp1712
(I1
I1
I1
I3
g1125
tp1713
a(I1
I2
I1
I2
g1118
tp1714
a(I1
I2
I2
I3
g1111
tp1715
a(I1
I3
I1
I1
g1096
tp1716
a(I1
I3
I2
I2
g1103
tp1717
a(I1
I3
I3
I3
g1096
tp1718
a(I2
I1
I1
I2
g1118
tp1719
a(I2
I1
I2
I3
g1111
tp1720
a(I2
I2
I1
I1
g1407
tp1721
a(I2
I2
I2
I2
g31
(g32
(I-2
I5
tp1722
Rp1723
(dp1724
bg1093
tp1725
Rp1726
(dp1727
btp1728
a(I2
I2
I3
I3
g1407
tp1729
a(I2
I3
I2
I1
g1111
tp1730
a(I2
I3
I3
I2
g1118
tp1731
a(I3
I1
I1
I1
g1096
tp1732
a(I3
I1
I2
I2
g1103
tp1733
a(I3
I1
I3
I3
g1096
tp1734
a(I3
I2
I2
I1
g1111
tp1735
a(I3
I2
I3
I2
g1118
tp1736
a(I3
I3
I3
I1
g1125
tp1737
aas((I1
I01
tp1738
(I2
tp1739
(I1
tp1740
(I2
I01
tp1741
tp1742
(lp1743
(lp1744
(I1
I1
I1
I1
g798
tp1745
a(I1
I1
I2
I2
g811
tp1746
a(I1
I2
I1
I2
g803
tp1747
a(I1
I2
I2
I3
g811
tp1748
a(I2
I2
I1
I1
g811
tp1749
a(I2
I2
I2
I2
g803
tp1750
a(I2
I3
I1
I2
g811
tp1751
a(I2
I3
I2
I3
g798
tp1752
aa(lp1753
(I1
I1
I1
I1
g838
tp1754
a(I1
I1
I2
I2
g807
tp1755
a(I1
I2
I1
I2
g811
tp1756
a(I1
I2
I2
I3
g807
tp1757
a(I1
I3
I1
I3
g208
tp1758
a(I2
I1
I2
I1
g208
tp1759
a(I2
I2
I1
I1
g807
tp1760
a(I2
I2
I2
I2
g811
tp1761
a(I2
I3
I1
I2
g807
tp1762
a(I2
I3
I2
I3
g838
tp1763
aas((I2
I01
tp1764
(I1
I01
tp1765
(I1
tp1766
(I2
tp1767
tp1768
(lp1769
(lp1770
(I1
I2
I1
I2
g791
tp1771
a(I1
I2
I2
I1
g798
tp1772
a(I2
I1
I1
I2
g803
tp1773
a(I2
I1
I2
I1
g791
tp1774
a(I2
I2
I1
I3
g791
tp1775
a(I2
I2
I2
I2
g803
tp1776
a(I3
I1
I1
I3
g798
tp1777
a(I3
I1
I2
I2
g791
tp1778
aa(lp1779
(I1
I1
I1
I1
g208
tp1780
a(I1
I2
I1
I2
g803
tp1781
a(I1
I2
I2
I1
g838
tp1782
a(I2
I1
I1
I2
g811
tp1783
a(I2
I1
I2
I1
g803
tp1784
a(I2
I2
I1
I3
g803
tp1785
a(I2
I2
I2
I2
g811
tp1786
a(I3
I1
I1
I3
g838
tp1787
a(I3
I1
I2
I2
g803
tp1788
a(I3
I2
I2
I3
g208
tp1789
aas((I2
tp1790
(I1
I01
tp1791
(I1
I01
tp1792
(I2
tp1793
tp1794
(lp1795
(lp1796
(I1
I1
I1
I2
g811
tp1797
a(I1
I1
I2
I3
g798
tp1798
a(I2
I1
I1
I1
g791
tp1799
a(I2
I1
I2
I2
g807
tp1800
a(I2
I2
I1
I2
g803
tp1801
a(I2
I2
I2
I3
g811
tp1802
a(I3
I2
I1
I1
g818
tp1803
a(I3
I2
I2
I2
g791
tp1804
aa(lp1805
(I1
I1
I1
I2
g807
tp1806
a(I1
I1
I2
I3
g838
tp1807
a(I1
I2
I1
I3
g831
tp1808
a(I2
I1
I1
I1
g803
tp1809
a(I2
I1
I2
I2
g791
tp1810
a(I2
I2
I1
I2
g811
tp1811
a(I2
I2
I2
I3
g807
tp1812
a(I3
I1
I2
I1
g208
tp1813
a(I3
I2
I1
I1
g825
tp1814
a(I3
I2
I2
I2
g803
tp1815
aas((I2
tp1816
(I2
I01
tp1817
(I2
tp1818
(I2
I01
tp1819
tp1820
(lp1821
(lp1822
(I1
I1
I1
I1
I1
tp1823
a(I1
I1
I2
I2
I1
tp1824
a(I1
I1
I3
I3
I1
tp1825
a(I2
I2
I1
I1
I1
tp1826
a(I2
I2
I2
I2
I1
tp1827
a(I2
I2
I3
I3
I1
tp1828
a(I3
I3
I1
I1
I1
tp1829
a(I3
I3
I2
I2
I1
tp1830
a(I3
I3
I3
I3
I1
tp1831
aa(lp1832
(I1
I1
I1
I1
g183
tp1833
a(I1
I1
I3
I3
g187
tp1834
a(I1
I2
I2
I1
g183
tp1835
a(I1
I2
I3
I2
g183
tp1836
a(I2
I1
I1
I2
g183
tp1837
a(I2
I1
I2
I3
g183
tp1838
a(I2
I3
I2
I1
g183
tp1839
a(I2
I3
I3
I2
g183
tp1840
a(I3
I2
I1
I2
g183
tp1841
a(I3
I2
I2
I3
g183
tp1842
a(I3
I3
I1
I1
g187
tp1843
a(I3
I3
I3
I3
g183
tp1844
aa(lp1845
(I1
I1
I1
I1
g1387
tp1846
a(I1
I1
I2
I2
g1407
tp1847
a(I1
I1
I3
I3
g1387
tp1848
a(I1
I2
I2
I1
g1118
tp1849
a(I1
I2
I3
I2
g1111
tp1850
a(I1
I3
I3
I1
g1398
tp1851
a(I2
I1
I1
I2
g1118
tp1852
a(I2
I1
I2
I3
g1111
tp1853
a(I2
I2
I1
I1
g1407
tp1854
a(I2
I2
I2
I2
g1726
tp1855
a(I2
I2
I3
I3
g1407
tp1856
a(I2
I3
I2
I1
g1111
tp1857
a(I2
I3
I3
I2
g1118
tp1858
a(I3
I1
I1
I3
g1398
tp1859
a(I3
I2
I1
I2
g1111
tp1860
a(I3
I2
I2
I3
g1118
tp1861
a(I3
I3
I1
I1
g1387
tp1862
a(I3
I3
I2
I2
g1407
tp1863
a(I3
I3
I3
I3
g1387
tp1864
aas((I1
tp1865
(I1
I01
tp1866
(I2
tp1867
(I2
tp1868
tp1869
(lp1870
(lp1871
(I1
I1
I1
I3
I1
tp1872
a(I1
I1
I2
I2
I-1
tp1873
a(I1
I1
I3
I1
I1
tp1874
a(I2
I2
I1
I3
I1
tp1875
a(I2
I2
I2
I2
I-1
tp1876
a(I2
I2
I3
I1
I1
tp1877
aa(lp1878
(I1
I1
I1
I3
g255
tp1879
a(I1
I1
I3
I1
g776
tp1880
a(I1
I2
I2
I3
I-1
tp1881
a(I1
I2
I3
I2
I1
tp1882
a(I2
I1
I1
I2
I1
tp1883
a(I2
I1
I2
I1
I-1
tp1884
a(I2
I2
I1
I3
g776
tp1885
a(I2
I2
I3
I1
g255
tp1886
aas((I1
I01
tp1887
(I1
I01
tp1888
(I2
tp1889
(I2
tp1890
tp1891
(lp1892
(lp1893
(I1
I2
I1
I3
I-1
tp1894
a(I1
I2
I2
I2
I1
tp1895
a(I1
I2
I3
I1
I-1
tp1896
a(I2
I1
I1
I3
I1
tp1897
a(I2
I1
I2
I2
I-1
tp1898
a(I2
I1
I3
I1
I1
tp1899
aa(lp1900
(I1
I1
I1
I2
I-1
tp1901
a(I1
I1
I2
I1
I1
tp1902
a(I1
I2
I1
I3
g255
tp1903
a(I1
I2
I3
I1
g776
tp1904
a(I2
I1
I1
I3
g255
tp1905
a(I2
I1
I3
I1
g776
tp1906
a(I2
I2
I2
I3
I-1
tp1907
a(I2
I2
I3
I2
I1
tp1908
aas((I1
tp1909
(I1
tp1910
(I1
tp1911
(I1
tp1912
tp1913
(lp1914
(lp1915
(I1
I2
I1
I2
I-1
tp1916
a(I1
I2
I2
I1
I1
tp1917
a(I2
I1
I1
I2
I1
tp1918
a(I2
I1
I2
I1
I-1
tp1919
aa(lp1920
(I1
I1
I2
I2
g818
tp1921
a(I1
I2
I1
I2
g803
tp1922
a(I1
I2
I2
I1
g803
tp1923
a(I2
I1
I1
I2
g803
tp1924
a(I2
I1
I2
I1
g803
tp1925
a(I2
I2
I1
I1
g818
tp1926
aas((I1
I01
tp1927
(I1
tp1928
(I2
tp1929
(I2
tp1930
tp1931
(lp1932
(lp1933
(I1
I1
I1
I3
I1
tp1934
a(I1
I1
I2
I2
I-1
tp1935
a(I1
I1
I3
I1
I1
tp1936
a(I2
I2
I1
I3
I1
tp1937
a(I2
I2
I2
I2
I-1
tp1938
a(I2
I2
I3
I1
I1
tp1939
aa(lp1940
(I1
I1
I1
I3
g776
tp1941
a(I1
I1
I3
I1
g255
tp1942
a(I1
I2
I1
I2
I-1
tp1943
a(I1
I2
I2
I1
I1
tp1944
a(I2
I1
I2
I3
I1
tp1945
a(I2
I1
I3
I2
I-1
tp1946
a(I2
I2
I1
I3
g255
tp1947
a(I2
I2
I3
I1
g776
tp1948
aas((I2
I01
tp1949
(I2
I01
tp1950
(I1
I01
tp1951
(I1
I01
tp1952
tp1953
(lp1954
(lp1955
(I1
I3
I1
I2
I-1
tp1956
a(I1
I3
I2
I1
I1
tp1957
a(I2
I2
I1
I2
I1
tp1958
a(I2
I2
I2
I1
I-1
tp1959
a(I3
I1
I1
I2
I-1
tp1960
a(I3
I1
I2
I1
I1
tp1961
aa(lp1962
(I1
I2
I2
I2
I1
tp1963
a(I1
I3
I1
I2
g255
tp1964
a(I1
I3
I2
I1
g255
tp1965
a(I2
I1
I2
I2
I-1
tp1966
a(I2
I3
I1
I1
I1
tp1967
a(I3
I1
I1
I2
g776
tp1968
a(I3
I1
I2
I1
g776
tp1969
a(I3
I2
I1
I1
I-1
tp1970
aas((I1
I01
tp1971
(I2
tp1972
(I2
I01
tp1973
(I1
I01
tp1974
tp1975
(lp1976
(lp1977
(I1
I1
I1
I2
g798
tp1978
a(I1
I1
I2
I1
g791
tp1979
a(I1
I2
I2
I2
g803
tp1980
a(I1
I2
I3
I1
g791
tp1981
a(I2
I2
I1
I2
g811
tp1982
a(I2
I2
I2
I1
g807
tp1983
a(I2
I3
I2
I2
g811
tp1984
a(I2
I3
I3
I1
g818
tp1985
aa(lp1986
(I1
I1
I1
I2
g838
tp1987
a(I1
I1
I2
I1
g803
tp1988
a(I1
I2
I2
I2
g811
tp1989
a(I1
I2
I3
I1
g803
tp1990
a(I1
I3
I3
I2
g208
tp1991
a(I2
I1
I1
I1
g831
tp1992
a(I2
I2
I1
I2
g807
tp1993
a(I2
I2
I2
I1
g791
tp1994
a(I2
I3
I2
I2
g807
tp1995
a(I2
I3
I3
I1
g825
tp1996
aas((I1
I01
tp1997
(I2
tp1998
(I2
tp1999
(I1
I01
tp2000
tp2001
(lp2002
(lp2003
(I1
I1
I2
I1
g791
tp2004
a(I1
I1
I3
I2
g818
tp2005
a(I1
I2
I1
I1
g811
tp2006
a(I1
I2
I2
I2
g803
tp2007
a(I2
I2
I2
I1
g807
tp2008
a(I2
I2
I3
I2
g791
tp2009
a(I2
I3
I1
I1
g798
tp2010
a(I2
I3
I2
I2
g811
tp2011
aa(lp2012
(I1
I1
I2
I1
g807
tp2013
a(I1
I1
I3
I2
g838
tp2014
a(I1
I2
I1
I1
g803
tp2015
a(I1
I2
I2
I2
g791
tp2016
a(I1
I3
I1
I2
g208
tp2017
a(I2
I1
I3
I1
g831
tp2018
a(I2
I2
I2
I1
g811
tp2019
a(I2
I2
I3
I2
g807
tp2020
a(I2
I3
I1
I1
g825
tp2021
a(I2
I3
I2
I2
g803
tp2022
aas((I1
tp2023
(I1
tp2024
(I2
tp2025
(I2
tp2026
tp2027
(lp2028
(lp2029
(I1
I2
I1
I3
I-1
tp2030
a(I1
I2
I2
I2
I1
tp2031
a(I1
I2
I3
I1
I-1
tp2032
a(I2
I1
I1
I3
I1
tp2033
a(I2
I1
I2
I2
I-1
tp2034
a(I2
I1
I3
I1
I1
tp2035
aa(lp2036
(I1
I1
I2
I3
I1
tp2037
a(I1
I1
I3
I2
I-1
tp2038
a(I1
I2
I1
I3
g255
tp2039
a(I1
I2
I3
I1
g776
tp2040
a(I2
I1
I1
I3
g255
tp2041
a(I2
I1
I3
I1
g776
tp2042
a(I2
I2
I1
I2
I1
tp2043
a(I2
I2
I2
I1
I-1
tp2044
aas((I2
I01
tp2045
(I1
tp2046
(I2
I01
tp2047
(I1
tp2048
tp2049
(lp2050
(lp2051
(I1
I1
I2
I1
g811
tp2052
a(I1
I1
I3
I2
g798
tp2053
a(I2
I1
I1
I1
g791
tp2054
a(I2
I1
I2
I2
g807
tp2055
a(I2
I2
I2
I1
g803
tp2056
a(I2
I2
I3
I2
g811
tp2057
a(I3
I2
I1
I1
g818
tp2058
a(I3
I2
I2
I2
g791
tp2059
aa(lp2060
(I1
I1
I2
I1
g803
tp2061
a(I1
I1
I3
I2
g825
tp2062
a(I1
I2
I3
I1
g208
tp2063
a(I2
I1
I1
I1
g807
tp2064
a(I2
I1
I2
I2
g811
tp2065
a(I2
I2
I2
I1
g791
tp2066
a(I2
I2
I3
I2
g803
tp2067
a(I3
I1
I1
I2
g831
tp2068
a(I3
I2
I1
I1
g838
tp2069
a(I3
I2
I2
I2
g807
tp2070
aas((I1
tp2071
(I1
I01
tp2072
(I2
I01
tp2073
(I2
I01
tp2074
tp2075
(lp2076
(lp2077
(I1
I1
I1
I3
I1
tp2078
a(I1
I1
I2
I2
I-1
tp2079
a(I1
I1
I3
I1
I1
tp2080
a(I2
I2
I1
I3
I1
tp2081
a(I2
I2
I2
I2
I-1
tp2082
a(I2
I2
I3
I1
I1
tp2083
aa(lp2084
(I1
I1
I1
I3
g255
tp2085
a(I1
I1
I3
I1
g776
tp2086
a(I1
I2
I1
I2
I1
tp2087
a(I1
I2
I2
I1
I-1
tp2088
a(I2
I1
I2
I3
I-1
tp2089
a(I2
I1
I3
I2
I1
tp2090
a(I2
I2
I1
I3
g776
tp2091
a(I2
I2
I3
I1
g255
tp2092
aas((I1
tp2093
(I1
I01
tp2094
(I1
tp2095
(I1
I01
tp2096
tp2097
(lp2098
(lp2099
(I1
I1
I1
I1
I1
tp2100
a(I1
I1
I2
I2
I1
tp2101
a(I2
I2
I1
I1
I1
tp2102
a(I2
I2
I2
I2
I1
tp2103
aa(lp2104
(I1
I1
I1
I1
g807
tp2105
a(I1
I1
I2
I2
g803
tp2106
a(I1
I2
I2
I1
g818
tp2107
a(I2
I1
I1
I2
g818
tp2108
a(I2
I2
I1
I1
g803
tp2109
a(I2
I2
I2
I2
g807
tp2110
aas((I2
tp2111
(I1
tp2112
(I1
tp2113
(I2
tp2114
tp2115
(lp2116
(lp2117
(I1
I2
I1
I3
g818
tp2118
a(I1
I2
I2
I2
g811
tp2119
a(I2
I1
I1
I3
g811
tp2120
a(I2
I1
I2
I2
g807
tp2121
a(I2
I2
I1
I2
g803
tp2122
a(I2
I2
I2
I1
g791
tp2123
a(I3
I1
I1
I2
g791
tp2124
a(I3
I1
I2
I1
g798
tp2125
aa(lp2126
(I1
I1
I2
I3
g831
tp2127
a(I1
I2
I1
I3
g838
tp2128
a(I1
I2
I2
I2
g803
tp2129
a(I2
I1
I1
I3
g803
tp2130
a(I2
I1
I2
I2
g811
tp2131
a(I2
I2
I1
I2
g791
tp2132
a(I2
I2
I2
I1
g807
tp2133
a(I3
I1
I1
I2
g807
tp2134
a(I3
I1
I2
I1
g825
tp2135
a(I3
I2
I1
I1
g208
tp2136
aas((I2
tp2137
(I1
I01
tp2138
(I2
I01
tp2139
(I1
tp2140
tp2141
(lp2142
(lp2143
(I1
I1
I1
I1
g818
tp2144
a(I1
I1
I2
I2
g791
tp2145
a(I2
I1
I2
I1
g807
tp2146
a(I2
I1
I3
I2
g791
tp2147
a(I2
I2
I1
I1
g791
tp2148
a(I2
I2
I2
I2
g807
tp2149
a(I3
I2
I2
I1
g791
tp2150
a(I3
I2
I3
I2
g818
tp2151
aa(lp2152
(I1
I1
I1
I1
g838
tp2153
a(I1
I1
I2
I2
g807
tp2154
a(I1
I2
I1
I2
g208
tp2155
a(I2
I1
I2
I1
g811
tp2156
a(I2
I1
I3
I2
g807
tp2157
a(I2
I2
I1
I1
g807
tp2158
a(I2
I2
I2
I2
g811
tp2159
a(I3
I1
I3
I1
g208
tp2160
a(I3
I2
I2
I1
g807
tp2161
a(I3
I2
I3
I2
g838
tp2162
aas((I2
tp2163
(I2
tp2164
(I2
I01
tp2165
(I2
I01
tp2166
tp2167
(lp2168
(lp2169
(I1
I3
I1
I3
I1
tp2170
a(I1
I3
I2
I2
I-1
tp2171
a(I1
I3
I3
I1
I1
tp2172
a(I2
I2
I1
I3
I-1
tp2173
a(I2
I2
I2
I2
I1
tp2174
a(I2
I2
I3
I1
I-1
tp2175
a(I3
I1
I1
I3
I1
tp2176
a(I3
I1
I2
I2
I-1
tp2177
a(I3
I1
I3
I1
I1
tp2178
aa(lp2179
(I1
I2
I1
I2
g187
tp2180
a(I1
I2
I2
I1
g183
tp2181
a(I1
I3
I1
I3
g187
tp2182
a(I1
I3
I3
I1
g183
tp2183
a(I2
I1
I1
I2
g183
tp2184
a(I2
I1
I2
I1
g187
tp2185
a(I2
I3
I2
I3
g187
tp2186
a(I2
I3
I3
I2
g183
tp2187
a(I3
I1
I1
I3
g183
tp2188
a(I3
I1
I3
I1
g187
tp2189
a(I3
I2
I2
I3
g183
tp2190
a(I3
I2
I3
I2
g187
tp2191
aa(lp2192
(I1
I1
I1
I1
g1125
tp2193
a(I1
I2
I1
I2
g1111
tp2194
a(I1
I2
I2
I1
g1111
tp2195
a(I1
I3
I1
I3
g1096
tp2196
a(I1
I3
I2
I2
g1407
tp2197
a(I1
I3
I3
I1
g1096
tp2198
a(I2
I1
I1
I2
g1111
tp2199
a(I2
I1
I2
I1
g1111
tp2200
a(I2
I2
I1
I3
g1407
tp2201
a(I2
I2
I2
I2
g1135
tp2202
a(I2
I2
I3
I1
g1407
tp2203
a(I2
I3
I2
I3
g1111
tp2204
a(I2
I3
I3
I2
g1111
tp2205
a(I3
I1
I1
I3
g1096
tp2206
a(I3
I1
I2
I2
g1407
tp2207
a(I3
I1
I3
I1
g1096
tp2208
a(I3
I2
I2
I3
g1111
tp2209
a(I3
I2
I3
I2
g1111
tp2210
a(I3
I3
I3
I3
g1125
tp2211
aas((I2
I01
tp2212
(I2
tp2213
(I1
tp2214
(I1
tp2215
tp2216
(lp2217
(lp2218
(I1
I1
I1
I2
I1
tp2219
a(I1
I1
I2
I1
I-1
tp2220
a(I2
I2
I1
I2
I1
tp2221
a(I2
I2
I2
I1
I-1
tp2222
a(I3
I3
I1
I2
I1
tp2223
a(I3
I3
I2
I1
I-1
tp2224
aa(lp2225
(I1
I1
I1
I2
g255
tp2226
a(I1
I1
I2
I1
g255
tp2227
a(I1
I2
I1
I1
I1
tp2228
a(I2
I1
I2
I2
I-1
tp2229
a(I2
I3
I1
I1
I1
tp2230
a(I3
I2
I2
I2
I-1
tp2231
a(I3
I3
I1
I2
g776
tp2232
a(I3
I3
I2
I1
g776
tp2233
aas((I2
tp2234
(I1
tp2235
(I1
I01
tp2236
(I2
I01
tp2237
tp2238
(lp2239
(lp2240
(I1
I2
I1
I2
g811
tp2241
a(I1
I2
I2
I1
g818
tp2242
a(I2
I1
I1
I2
g807
tp2243
a(I2
I1
I2
I1
g811
tp2244
a(I2
I2
I1
I3
g811
tp2245
a(I2
I2
I2
I2
g807
tp2246
a(I3
I1
I1
I3
g818
tp2247
a(I3
I1
I2
I2
g811
tp2248
aa(lp2249
(I1
I1
I1
I1
g208
tp2250
a(I1
I2
I1
I2
g803
tp2251
a(I1
I2
I2
I1
g838
tp2252
a(I2
I1
I1
I2
g811
tp2253
a(I2
I1
I2
I1
g803
tp2254
a(I2
I2
I1
I3
g803
tp2255
a(I2
I2
I2
I2
g811
tp2256
a(I3
I1
I1
I3
g838
tp2257
a(I3
I1
I2
I2
g803
tp2258
a(I3
I2
I2
I3
g208
tp2259
aas((I1
tp2260
(I1
I01
tp2261
(I1
I01
tp2262
(I1
tp2263
tp2264
(lp2265
(lp2266
(I1
I1
I1
I1
I1
tp2267
a(I1
I1
I2
I2
I1
tp2268
a(I2
I2
I1
I1
I1
tp2269
a(I2
I2
I2
I2
I1
tp2270
aa(lp2271
(I1
I1
I1
I1
g807
tp2272
a(I1
I1
I2
I2
g803
tp2273
a(I1
I2
I1
I2
g818
tp2274
a(I2
I1
I2
I1
g818
tp2275
a(I2
I2
I1
I1
g803
tp2276
a(I2
I2
I2
I2
g807
tp2277
aas((I1
I01
tp2278
(I1
tp2279
(I2
I01
tp2280
(I2
tp2281
tp2282
(lp2283
(lp2284
(I1
I1
I1
I1
I1
tp2285
a(I1
I1
I2
I2
I1
tp2286
a(I1
I1
I3
I3
I1
tp2287
a(I2
I2
I1
I1
I1
tp2288
a(I2
I2
I2
I2
I1
tp2289
a(I2
I2
I3
I3
I1
tp2290
aa(lp2291
(I1
I1
I1
I1
g776
tp2292
a(I1
I1
I3
I3
g255
tp2293
a(I1
I2
I2
I1
I1
tp2294
a(I1
I2
I3
I2
I1
tp2295
a(I2
I1
I1
I2
I1
tp2296
a(I2
I1
I2
I3
I1
tp2297
a(I2
I2
I1
I1
g255
tp2298
a(I2
I2
I3
I3
g776
tp2299
aas((I2
tp2300
(I1
tp2301
(I2
I01
tp2302
(I1
tp2303
tp2304
(lp2305
(lp2306
(I1
I2
I1
I1
g818
tp2307
a(I1
I2
I2
I2
g791
tp2308
a(I2
I1
I1
I1
g811
tp2309
a(I2
I1
I2
I2
g803
tp2310
a(I2
I2
I2
I1
g807
tp2311
a(I2
I2
I3
I2
g791
tp2312
a(I3
I1
I2
I1
g811
tp2313
a(I3
I1
I3
I2
g798
tp2314
aa(lp2315
(I1
I1
I1
I2
g831
tp2316
a(I1
I2
I1
I1
g838
tp2317
a(I1
I2
I2
I2
g807
tp2318
a(I2
I1
I1
I1
g803
tp2319
a(I2
I1
I2
I2
g791
tp2320
a(I2
I2
I2
I1
g811
tp2321
a(I2
I2
I3
I2
g807
tp2322
a(I3
I1
I2
I1
g803
tp2323
a(I3
I1
I3
I2
g825
tp2324
a(I3
I2
I3
I1
g208
tp2325
aas((I2
I01
tp2326
(I1
I01
tp2327
(I1
I01
tp2328
(I2
I01
tp2329
tp2330
(lp2331
(lp2332
(I1
I2
I1
I3
g818
tp2333
a(I1
I2
I2
I2
g811
tp2334
a(I2
I1
I1
I3
g811
tp2335
a(I2
I1
I2
I2
g807
tp2336
a(I2
I2
I1
I2
g803
tp2337
a(I2
I2
I2
I1
g791
tp2338
a(I3
I1
I1
I2
g791
tp2339
a(I3
I1
I2
I1
g798
tp2340
aa(lp2341
(I1
I1
I2
I3
g208
tp2342
a(I1
I2
I1
I3
g825
tp2343
a(I1
I2
I2
I2
g807
tp2344
a(I2
I1
I1
I3
g807
tp2345
a(I2
I1
I2
I2
g791
tp2346
a(I2
I2
I1
I2
g811
tp2347
a(I2
I2
I2
I1
g803
tp2348
a(I3
I1
I1
I2
g803
tp2349
a(I3
I1
I2
I1
g838
tp2350
a(I3
I2
I1
I1
g831
tp2351
aas((I1
I01
tp2352
(I2
I01
tp2353
(I1
I01
tp2354
(I2
tp2355
tp2356
(lp2357
(lp2358
(I1
I2
I1
I1
g811
tp2359
a(I1
I2
I2
I2
g803
tp2360
a(I1
I3
I1
I2
g811
tp2361
a(I1
I3
I2
I3
g798
tp2362
a(I2
I1
I1
I1
g818
tp2363
a(I2
I1
I2
I2
g791
tp2364
a(I2
I2
I1
I2
g807
tp2365
a(I2
I2
I2
I3
g791
tp2366
aa(lp2367
(I1
I1
I2
I1
g208
tp2368
a(I1
I2
I1
I1
g807
tp2369
a(I1
I2
I2
I2
g811
tp2370
a(I1
I3
I1
I2
g807
tp2371
a(I1
I3
I2
I3
g838
tp2372
a(I2
I1
I1
I1
g825
tp2373
a(I2
I1
I2
I2
g803
tp2374
a(I2
I2
I1
I2
g791
tp2375
a(I2
I2
I2
I3
g803
tp2376
a(I2
I3
I1
I3
g831
tp2377
aas((I1
I01
tp2378
(I2
I01
tp2379
(I2
tp2380
(I1
tp2381
tp2382
(lp2383
(lp2384
(I1
I2
I1
I2
g791
tp2385
a(I1
I2
I2
I1
g803
tp2386
a(I1
I3
I2
I2
g791
tp2387
a(I1
I3
I3
I1
g798
tp2388
a(I2
I1
I1
I2
g798
tp2389
a(I2
I1
I2
I1
g791
tp2390
a(I2
I2
I2
I2
g803
tp2391
a(I2
I2
I3
I1
g791
tp2392
aa(lp2393
(I1
I1
I1
I1
g208
tp2394
a(I1
I2
I1
I2
g803
tp2395
a(I1
I2
I2
I1
g811
tp2396
a(I1
I3
I2
I2
g803
tp2397
a(I1
I3
I3
I1
g838
tp2398
a(I2
I1
I1
I2
g838
tp2399
a(I2
I1
I2
I1
g803
tp2400
a(I2
I2
I2
I2
g811
tp2401
a(I2
I2
I3
I1
g803
tp2402
a(I2
I3
I3
I2
g208
tp2403
aas((I1
tp2404
(I2
tp2405
(I1
tp2406
(I2
tp2407
tp2408
(lp2409
(lp2410
(I1
I2
I1
I3
g791
tp2411
a(I1
I2
I2
I2
g803
tp2412
a(I1
I3
I1
I2
g811
tp2413
a(I1
I3
I2
I1
g818
tp2414
a(I2
I1
I1
I3
g798
tp2415
a(I2
I1
I2
I2
g791
tp2416
a(I2
I2
I1
I2
g807
tp2417
a(I2
I2
I2
I1
g811
tp2418
aa(lp2419
(I1
I1
I2
I3
g208
tp2420
a(I1
I2
I1
I3
g807
tp2421
a(I1
I2
I2
I2
g791
tp2422
a(I1
I3
I1
I2
g803
tp2423
a(I1
I3
I2
I1
g838
tp2424
a(I2
I1
I1
I3
g825
tp2425
a(I2
I1
I2
I2
g807
tp2426
a(I2
I2
I1
I2
g811
tp2427
a(I2
I2
I2
I1
g803
tp2428
a(I2
I3
I1
I1
g831
tp2429
aas((I1
tp2430
(I2
I01
tp2431
(I2
tp2432
(I1
tp2433
tp2434
(lp2435
(lp2436
(I1
I1
I1
I2
g818
tp2437
a(I1
I1
I2
I1
g811
tp2438
a(I1
I2
I2
I2
g807
tp2439
a(I1
I2
I3
I1
g811
tp2440
a(I2
I2
I1
I2
g791
tp2441
a(I2
I2
I2
I1
g803
tp2442
a(I2
I3
I2
I2
g791
tp2443
a(I2
I3
I3
I1
g798
tp2444
aa(lp2445
(I1
I1
I1
I2
g825
tp2446
a(I1
I1
I2
I1
g807
tp2447
a(I1
I2
I2
I2
g791
tp2448
a(I1
I2
I3
I1
g807
tp2449
a(I1
I3
I3
I2
g831
tp2450
a(I2
I1
I1
I1
g208
tp2451
a(I2
I2
I1
I2
g803
tp2452
a(I2
I2
I2
I1
g811
tp2453
a(I2
I3
I2
I2
g803
tp2454
a(I2
I3
I3
I1
g838
tp2455
aas((I1
tp2456
(I1
tp2457
(I2
tp2458
(I2
I01
tp2459
tp2460
(lp2461
(lp2462
(I1
I2
I1
I1
I-1
tp2463
a(I1
I2
I2
I2
I-1
tp2464
a(I1
I2
I3
I3
I-1
tp2465
a(I2
I1
I1
I1
I1
tp2466
a(I2
I1
I2
I2
I1
tp2467
a(I2
I1
I3
I3
I1
tp2468
aa(lp2469
(I1
I1
I2
I1
I1
tp2470
a(I1
I1
I3
I2
I1
tp2471
a(I1
I2
I1
I1
g255
tp2472
a(I1
I2
I3
I3
g776
tp2473
a(I2
I1
I1
I1
g255
tp2474
a(I2
I1
I3
I3
g776
tp2475
a(I2
I2
I1
I2
I-1
tp2476
a(I2
I2
I2
I3
I-1
tp2477
aas((I1
I01
tp2478
(I1
I01
tp2479
(I1
I01
tp2480
(I1
tp2481
tp2482
(lp2483
(lp2484
(I1
I2
I1
I1
I-1
tp2485
a(I1
I2
I2
I2
I-1
tp2486
a(I2
I1
I1
I1
I1
tp2487
a(I2
I1
I2
I2
I1
tp2488
aa(lp2489
(I1
I1
I2
I1
g798
tp2490
a(I1
I2
I1
I1
g807
tp2491
a(I1
I2
I2
I2
g803
tp2492
a(I2
I1
I1
I1
g807
tp2493
a(I2
I1
I2
I2
g803
tp2494
a(I2
I2
I1
I2
g818
tp2495
aas((I2
tp2496
(I2
tp2497
(I1
I01
tp2498
(I1
I01
tp2499
tp2500
(lp2501
(lp2502
(I1
I3
I1
I2
I-1
tp2503
a(I1
I3
I2
I1
I1
tp2504
a(I2
I2
I1
I2
I1
tp2505
a(I2
I2
I2
I1
I-1
tp2506
a(I3
I1
I1
I2
I-1
tp2507
a(I3
I1
I2
I1
I1
tp2508
aa(lp2509
(I1
I2
I1
I1
I1
tp2510
a(I1
I3
I1
I2
g776
tp2511
a(I1
I3
I2
I1
g776
tp2512
a(I2
I1
I1
I1
I-1
tp2513
a(I2
I3
I2
I2
I1
tp2514
a(I3
I1
I1
I2
g255
tp2515
a(I3
I1
I2
I1
g255
tp2516
a(I3
I2
I2
I2
I-1
tp2517
aas((I2
I01
tp2518
(I1
I01
tp2519
(I2
tp2520
(I1
I01
tp2521
tp2522
(lp2523
(lp2524
(I1
I2
I1
I1
g798
tp2525
a(I1
I2
I2
I2
g811
tp2526
a(I2
I1
I1
I1
g791
tp2527
a(I2
I1
I2
I2
g807
tp2528
a(I2
I2
I2
I1
g803
tp2529
a(I2
I2
I3
I2
g811
tp2530
a(I3
I1
I2
I1
g791
tp2531
a(I3
I1
I3
I2
g818
tp2532
aa(lp2533
(I1
I1
I1
I2
g208
tp2534
a(I1
I2
I1
I1
g825
tp2535
a(I1
I2
I2
I2
g803
tp2536
a(I2
I1
I1
I1
g807
tp2537
a(I2
I1
I2
I2
g811
tp2538
a(I2
I2
I2
I1
g791
tp2539
a(I2
I2
I3
I2
g803
tp2540
a(I3
I1
I2
I1
g807
tp2541
a(I3
I1
I3
I2
g838
tp2542
a(I3
I2
I3
I1
g831
tp2543
aas((I1
tp2544
(I2
tp2545
(I1
I01
tp2546
(I2
I01
tp2547
tp2548
(lp2549
(lp2550
(I1
I2
I1
I2
g803
tp2551
a(I1
I2
I2
I1
g791
tp2552
a(I1
I3
I1
I3
g798
tp2553
a(I1
I3
I2
I2
g791
tp2554
a(I2
I1
I1
I2
g791
tp2555
a(I2
I1
I2
I1
g798
tp2556
a(I2
I2
I1
I3
g791
tp2557
a(I2
I2
I2
I2
g803
tp2558
aa(lp2559
(I1
I1
I1
I1
g831
tp2560
a(I1
I2
I1
I2
g791
tp2561
a(I1
I2
I2
I1
g807
tp2562
a(I1
I3
I1
I3
g825
tp2563
a(I1
I3
I2
I2
g807
tp2564
a(I2
I1
I1
I2
g807
tp2565
a(I2
I1
I2
I1
g825
tp2566
a(I2
I2
I1
I3
g807
tp2567
a(I2
I2
I2
I2
g791
tp2568
a(I2
I3
I2
I3
g831
tp2569
aas((I2
tp2570
(I2
I01
tp2571
(I1
I01
tp2572
(I1
tp2573
tp2574
(lp2575
(lp2576
(I1
I1
I1
I1
I1
tp2577
a(I1
I1
I2
I2
I1
tp2578
a(I2
I2
I1
I1
I1
tp2579
a(I2
I2
I2
I2
I1
tp2580
a(I3
I3
I1
I1
I1
tp2581
a(I3
I3
I2
I2
I1
tp2582
aa(lp2583
(I1
I1
I1
I1
g255
tp2584
a(I1
I1
I2
I2
g776
tp2585
a(I1
I2
I1
I2
I-1
tp2586
a(I2
I1
I2
I1
I-1
tp2587
a(I2
I3
I1
I2
I-1
tp2588
a(I3
I2
I2
I1
I-1
tp2589
a(I3
I3
I1
I1
g776
tp2590
a(I3
I3
I2
I2
g255
tp2591
aas((I2
tp2592
(I2
I01
tp2593
(I2
I01
tp2594
(I2
tp2595
tp2596
(lp2597
(lp2598
(I1
I1
I1
I1
I1
tp2599
a(I1
I1
I2
I2
I1
tp2600
a(I1
I1
I3
I3
I1
tp2601
a(I2
I2
I1
I1
I1
tp2602
a(I2
I2
I2
I2
I1
tp2603
a(I2
I2
I3
I3
I1
tp2604
a(I3
I3
I1
I1
I1
tp2605
a(I3
I3
I2
I2
I1
tp2606
a(I3
I3
I3
I3
I1
tp2607
aa(lp2608
(I1
I1
I1
I1
g183
tp2609
a(I1
I1
I3
I3
g187
tp2610
a(I1
I2
I1
I2
g183
tp2611
a(I1
I2
I2
I3
g183
tp2612
a(I2
I1
I2
I1
g183
tp2613
a(I2
I1
I3
I2
g183
tp2614
a(I2
I3
I1
I2
g183
tp2615
a(I2
I3
I2
I3
g183
tp2616
a(I3
I2
I2
I1
g183
tp2617
a(I3
I2
I3
I2
g183
tp2618
a(I3
I3
I1
I1
g187
tp2619
a(I3
I3
I3
I3
g183
tp2620
aa(lp2621
(I1
I1
I1
I1
g1387
tp2622
a(I1
I1
I2
I2
g1407
tp2623
a(I1
I1
I3
I3
g1387
tp2624
a(I1
I2
I1
I2
g1118
tp2625
a(I1
I2
I2
I3
g1111
tp2626
a(I1
I3
I1
I3
g1398
tp2627
a(I2
I1
I2
I1
g1118
tp2628
a(I2
I1
I3
I2
g1111
tp2629
a(I2
I2
I1
I1
g1407
tp2630
a(I2
I2
I2
I2
g1726
tp2631
a(I2
I2
I3
I3
g1407
tp2632
a(I2
I3
I1
I2
g1111
tp2633
a(I2
I3
I2
I3
g1118
tp2634
a(I3
I1
I3
I1
g1398
tp2635
a(I3
I2
I2
I1
g1111
tp2636
a(I3
I2
I3
I2
g1118
tp2637
a(I3
I3
I1
I1
g1387
tp2638
a(I3
I3
I2
I2
g1407
tp2639
a(I3
I3
I3
I3
g1387
tp2640
aas((I1
I01
tp2641
(I1
I01
tp2642
(I1
tp2643
(I1
tp2644
tp2645
(lp2646
(lp2647
(I1
I2
I1
I2
I-1
tp2648
a(I1
I2
I2
I1
I1
tp2649
a(I2
I1
I1
I2
I1
tp2650
a(I2
I1
I2
I1
I-1
tp2651
aa(lp2652
(I1
I1
I1
I1
g798
tp2653
a(I1
I2
I1
I2
g803
tp2654
a(I1
I2
I2
I1
g803
tp2655
a(I2
I1
I1
I2
g803
tp2656
a(I2
I1
I2
I1
g803
tp2657
a(I2
I2
I2
I2
g798
tp2658
aas((I1
I01
tp2659
(I2
I01
tp2660
(I1
tp2661
(I2
tp2662
tp2663
(lp2664
(lp2665
(I1
I2
I1
I2
g807
tp2666
a(I1
I2
I2
I1
g811
tp2667
a(I1
I3
I1
I3
g818
tp2668
a(I1
I3
I2
I2
g811
tp2669
a(I2
I1
I1
I2
g811
tp2670
a(I2
I1
I2
I1
g818
tp2671
a(I2
I2
I1
I3
g811
tp2672
a(I2
I2
I2
I2
g807
tp2673
aa(lp2674
(I1
I1
I1
I1
g208
tp2675
a(I1
I2
I1
I2
g811
tp2676
a(I1
I2
I2
I1
g803
tp2677
a(I1
I3
I1
I3
g838
tp2678
a(I1
I3
I2
I2
g803
tp2679
a(I2
I1
I1
I2
g803
tp2680
a(I2
I1
I2
I1
g838
tp2681
a(I2
I2
I1
I3
g803
tp2682
a(I2
I2
I2
I2
g811
tp2683
a(I2
I3
I2
I3
g208
tp2684
aas((I1
I01
tp2685
(I1
tp2686
(I2
I01
tp2687
(I2
I01
tp2688
tp2689
(lp2690
(lp2691
(I1
I1
I1
I3
I1
tp2692
a(I1
I1
I2
I2
I-1
tp2693
a(I1
I1
I3
I1
I1
tp2694
a(I2
I2
I1
I3
I1
tp2695
a(I2
I2
I2
I2
I-1
tp2696
a(I2
I2
I3
I1
I1
tp2697
aa(lp2698
(I1
I1
I1
I3
g776
tp2699
a(I1
I1
I3
I1
g255
tp2700
a(I1
I2
I2
I3
I1
tp2701
a(I1
I2
I3
I2
I-1
tp2702
a(I2
I1
I1
I2
I-1
tp2703
a(I2
I1
I2
I1
I1
tp2704
a(I2
I2
I1
I3
g255
tp2705
a(I2
I2
I3
I1
g776
tp2706
aas((I2
I01
tp2707
(I2
tp2708
(I2
tp2709
(I2
I01
tp2710
tp2711
(lp2712
(lp2713
(I1
I1
I1
I1
I1
tp2714
a(I1
I1
I2
I2
I1
tp2715
a(I1
I1
I3
I3
I1
tp2716
a(I2
I2
I1
I1
I1
tp2717
a(I2
I2
I2
I2
I1
tp2718
a(I2
I2
I3
I3
I1
tp2719
a(I3
I3
I1
I1
I1
tp2720
a(I3
I3
I2
I2
I1
tp2721
a(I3
I3
I3
I3
I1
tp2722
aa(lp2723
(I1
I1
I1
I1
g187
tp2724
a(I1
I1
I3
I3
g183
tp2725
a(I1
I2
I1
I2
g187
tp2726
a(I1
I2
I2
I3
g187
tp2727
a(I2
I1
I2
I1
g187
tp2728
a(I2
I1
I3
I2
g187
tp2729
a(I2
I3
I1
I2
g187
tp2730
a(I2
I3
I2
I3
g187
tp2731
a(I3
I2
I2
I1
g187
tp2732
a(I3
I2
I3
I2
g187
tp2733
a(I3
I3
I1
I1
g183
tp2734
a(I3
I3
I3
I3
g187
tp2735
aa(lp2736
(I1
I1
I1
I1
g1096
tp2737
a(I1
I1
I2
I2
g1103
tp2738
a(I1
I1
I3
I3
g1096
tp2739
a(I1
I2
I1
I2
g1111
tp2740
a(I1
I2
I2
I3
g1118
tp2741
a(I1
I3
I1
I3
g1125
tp2742
a(I2
I1
I2
I1
g1111
tp2743
a(I2
I1
I3
I2
g1118
tp2744
a(I2
I2
I1
I1
g1103
tp2745
a(I2
I2
I2
I2
g1135
tp2746
a(I2
I2
I3
I3
g1103
tp2747
a(I2
I3
I1
I2
g1118
tp2748
a(I2
I3
I2
I3
g1111
tp2749
a(I3
I1
I3
I1
g1125
tp2750
a(I3
I2
I2
I1
g1118
tp2751
a(I3
I2
I3
I2
g1111
tp2752
a(I3
I3
I1
I1
g1096
tp2753
a(I3
I3
I2
I2
g1103
tp2754
a(I3
I3
I3
I3
g1096
tp2755
aas((I2
tp2756
(I1
tp2757
(I1
I01
tp2758
(I2
tp2759
tp2760
(lp2761
(lp2762
(I1
I2
I1
I2
g811
tp2763
a(I1
I2
I2
I3
g798
tp2764
a(I2
I1
I1
I2
g807
tp2765
a(I2
I1
I2
I3
g791
tp2766
a(I2
I2
I1
I1
g791
tp2767
a(I2
I2
I2
I2
g807
tp2768
a(I3
I1
I1
I1
g798
tp2769
a(I3
I1
I2
I2
g811
tp2770
aa(lp2771
(I1
I1
I1
I3
g208
tp2772
a(I1
I2
I1
I2
g807
tp2773
a(I1
I2
I2
I3
g838
tp2774
a(I2
I1
I1
I2
g791
tp2775
a(I2
I1
I2
I3
g803
tp2776
a(I2
I2
I1
I1
g803
tp2777
a(I2
I2
I2
I2
g791
tp2778
a(I3
I1
I1
I1
g838
tp2779
a(I3
I1
I2
I2
g807
tp2780
a(I3
I2
I2
I1
g208
tp2781
aas((I2
tp2782
(I1
I01
tp2783
(I2
tp2784
(I1
I01
tp2785
tp2786
(lp2787
(lp2788
(I1
I1
I2
I1
g811
tp2789
a(I1
I1
I3
I2
g798
tp2790
a(I2
I1
I1
I1
g791
tp2791
a(I2
I1
I2
I2
g807
tp2792
a(I2
I2
I2
I1
g803
tp2793
a(I2
I2
I3
I2
g811
tp2794
a(I3
I2
I1
I1
g818
tp2795
a(I3
I2
I2
I2
g791
tp2796
aa(lp2797
(I1
I1
I2
I1
g807
tp2798
a(I1
I1
I3
I2
g838
tp2799
a(I1
I2
I3
I1
g831
tp2800
a(I2
I1
I1
I1
g803
tp2801
a(I2
I1
I2
I2
g791
tp2802
a(I2
I2
I2
I1
g811
tp2803
a(I2
I2
I3
I2
g807
tp2804
a(I3
I1
I1
I2
g208
tp2805
a(I3
I2
I1
I1
g825
tp2806
a(I3
I2
I2
I2
g803
tp2807
aas((I2
I01
tp2808
(I1
tp2809
(I2
tp2810
(I1
I01
tp2811
tp2812
(lp2813
(lp2814
(I1
I1
I1
I1
g798
tp2815
a(I1
I1
I2
I2
g811
tp2816
a(I2
I1
I2
I1
g803
tp2817
a(I2
I1
I3
I2
g811
tp2818
a(I2
I2
I1
I1
g811
tp2819
a(I2
I2
I2
I2
g803
tp2820
a(I3
I2
I2
I1
g811
tp2821
a(I3
I2
I3
I2
g798
tp2822
aa(lp2823
(I1
I1
I1
I1
g838
tp2824
a(I1
I1
I2
I2
g807
tp2825
a(I1
I2
I1
I2
g208
tp2826
a(I2
I1
I2
I1
g811
tp2827
a(I2
I1
I3
I2
g807
tp2828
a(I2
I2
I1
I1
g807
tp2829
a(I2
I2
I2
I2
g811
tp2830
a(I3
I1
I3
I1
g208
tp2831
a(I3
I2
I2
I1
g807
tp2832
a(I3
I2
I3
I2
g838
tp2833
aas((I2
I01
tp2834
(I1
tp2835
(I2
tp2836
(I1
tp2837
tp2838
(lp2839
(lp2840
(I1
I1
I1
I2
g818
tp2841
a(I1
I1
I2
I1
g811
tp2842
a(I2
I1
I2
I2
g807
tp2843
a(I2
I1
I3
I1
g811
tp2844
a(I2
I2
I1
I2
g791
tp2845
a(I2
I2
I2
I1
g803
tp2846
a(I3
I2
I2
I2
g791
tp2847
a(I3
I2
I3
I1
g798
tp2848
aa(lp2849
(I1
I1
I1
I2
g825
tp2850
a(I1
I1
I2
I1
g807
tp2851
a(I1
I2
I1
I1
g208
tp2852
a(I2
I1
I2
I2
g791
tp2853
a(I2
I1
I3
I1
g807
tp2854
a(I2
I2
I1
I2
g803
tp2855
a(I2
I2
I2
I1
g811
tp2856
a(I3
I1
I3
I2
g831
tp2857
a(I3
I2
I2
I2
g803
tp2858
a(I3
I2
I3
I1
g838
tp2859
aas((I1
I01
tp2860
(I1
I01
tp2861
(I1
I01
tp2862
(I1
I01
tp2863
tp2864
(lp2865
(lp2866
(I1
I2
I1
I2
I1
tp2867
a(I1
I2
I2
I1
I-1
tp2868
a(I2
I1
I1
I2
I-1
tp2869
a(I2
I1
I2
I1
I1
tp2870
aa(lp2871
(I1
I1
I2
I2
g798
tp2872
a(I1
I2
I1
I2
g807
tp2873
a(I1
I2
I2
I1
g807
tp2874
a(I2
I1
I1
I2
g807
tp2875
a(I2
I1
I2
I1
g807
tp2876
a(I2
I2
I1
I1
g798
tp2877
aas((I1
I01
tp2878
(I1
tp2879
(I1
tp2880
(I1
tp2881
tp2882
(lp2883
(lp2884
(I1
I1
I1
I2
I1
tp2885
a(I1
I1
I2
I1
I-1
tp2886
a(I2
I2
I1
I2
I1
tp2887
a(I2
I2
I2
I1
I-1
tp2888
aa(lp2889
(I1
I1
I1
I2
g807
tp2890
a(I1
I1
I2
I1
g807
tp2891
a(I1
I2
I1
I1
g798
tp2892
a(I2
I1
I2
I2
g818
tp2893
a(I2
I2
I1
I2
g803
tp2894
a(I2
I2
I2
I1
g803
tp2895
aas((I1
I01
tp2896
(I2
tp2897
(I1
I01
tp2898
(I2
tp2899
tp2900
(lp2901
(lp2902
(I1
I1
I1
I2
g791
tp2903
a(I1
I1
I2
I3
g818
tp2904
a(I1
I2
I1
I1
g811
tp2905
a(I1
I2
I2
I2
g803
tp2906
a(I2
I2
I1
I2
g807
tp2907
a(I2
I2
I2
I3
g791
tp2908
a(I2
I3
I1
I1
g798
tp2909
a(I2
I3
I2
I2
g811
tp2910
aa(lp2911
(I1
I1
I1
I2
g807
tp2912
a(I1
I1
I2
I3
g838
tp2913
a(I1
I2
I1
I1
g803
tp2914
a(I1
I2
I2
I2
g791
tp2915
a(I1
I3
I2
I1
g208
tp2916
a(I2
I1
I1
I3
g831
tp2917
a(I2
I2
I1
I2
g811
tp2918
a(I2
I2
I2
I3
g807
tp2919
a(I2
I3
I1
I1
g825
tp2920
a(I2
I3
I2
I2
g803
tp2921
aas((I2
I01
tp2922
(I2
tp2923
(I2
tp2924
(I2
tp2925
tp2926
(lp2927
(lp2928
(I1
I1
I1
I3
I1
tp2929
a(I1
I1
I2
I2
I-1
tp2930
a(I1
I1
I3
I1
I1
tp2931
a(I2
I2
I1
I3
I1
tp2932
a(I2
I2
I2
I2
I-1
tp2933
a(I2
I2
I3
I1
I1
tp2934
a(I3
I3
I1
I3
I1
tp2935
a(I3
I3
I2
I2
I-1
tp2936
a(I3
I3
I3
I1
I1
tp2937
aa(lp2938
(I1
I1
I1
I3
g187
tp2939
a(I1
I1
I3
I1
g183
tp2940
a(I1
I2
I1
I2
g183
tp2941
a(I1
I2
I2
I1
g187
tp2942
a(I2
I1
I2
I3
g187
tp2943
a(I2
I1
I3
I2
g183
tp2944
a(I2
I3
I1
I2
g183
tp2945
a(I2
I3
I2
I1
g187
tp2946
a(I3
I2
I2
I3
g187
tp2947
a(I3
I2
I3
I2
g183
tp2948
a(I3
I3
I1
I3
g183
tp2949
a(I3
I3
I3
I1
g187
tp2950
aa(lp2951
(I1
I1
I1
I3
g1096
tp2952
a(I1
I1
I2
I2
g1407
tp2953
a(I1
I1
I3
I1
g1096
tp2954
a(I1
I2
I1
I2
g1118
tp2955
a(I1
I2
I2
I1
g1118
tp2956
a(I1
I3
I1
I1
g1125
tp2957
a(I2
I1
I2
I3
g1111
tp2958
a(I2
I1
I3
I2
g1111
tp2959
a(I2
I2
I1
I3
g1103
tp2960
a(I2
I2
I2
I2
g1726
tp2961
a(I2
I2
I3
I1
g1103
tp2962
a(I2
I3
I1
I2
g1111
tp2963
a(I2
I3
I2
I1
g1111
tp2964
a(I3
I1
I3
I3
g1125
tp2965
a(I3
I2
I2
I3
g1118
tp2966
a(I3
I2
I3
I2
g1118
tp2967
a(I3
I3
I1
I3
g1096
tp2968
a(I3
I3
I2
I2
g1407
tp2969
a(I3
I3
I3
I1
g1096
tp2970
aas((I2
tp2971
(I2
tp2972
(I1
tp2973
(I1
I01
tp2974
tp2975
(lp2976
(lp2977
(I1
I3
I1
I1
I1
tp2978
a(I1
I3
I2
I2
I1
tp2979
a(I2
I2
I1
I1
I-1
tp2980
a(I2
I2
I2
I2
I-1
tp2981
a(I3
I1
I1
I1
I1
tp2982
a(I3
I1
I2
I2
I1
tp2983
aa(lp2984
(I1
I2
I2
I1
I-1
tp2985
a(I1
I3
I1
I1
g776
tp2986
a(I1
I3
I2
I2
g255
tp2987
a(I2
I1
I2
I1
I1
tp2988
a(I2
I3
I1
I2
I1
tp2989
a(I3
I1
I1
I1
g255
tp2990
a(I3
I1
I2
I2
g776
tp2991
a(I3
I2
I1
I2
I-1
tp2992
aas((I2
I01
tp2993
(I2
I01
tp2994
(I2
tp2995
(I2
tp2996
tp2997
(lp2998
(lp2999
(I1
I3
I1
I3
I1
tp3000
a(I1
I3
I2
I2
I-1
tp3001
a(I1
I3
I3
I1
I1
tp3002
a(I2
I2
I1
I3
I-1
tp3003
a(I2
I2
I2
I2
I1
tp3004
a(I2
I2
I3
I1
I-1
tp3005
a(I3
I1
I1
I3
I1
tp3006
a(I3
I1
I2
I2
I-1
tp3007
a(I3
I1
I3
I1
I1
tp3008
aa(lp3009
(I1
I2
I1
I2
g183
tp3010
a(I1
I2
I2
I1
g187
tp3011
a(I1
I3
I1
I3
g183
tp3012
a(I1
I3
I3
I1
g187
tp3013
a(I2
I1
I1
I2
g187
tp3014
a(I2
I1
I2
I1
g183
tp3015
a(I2
I3
I2
I3
g183
tp3016
a(I2
I3
I3
I2
g187
tp3017
a(I3
I1
I1
I3
g187
tp3018
a(I3
I1
I3
I1
g183
tp3019
a(I3
I2
I2
I3
g187
tp3020
a(I3
I2
I3
I2
g183
tp3021
aa(lp3022
(I1
I1
I1
I1
g1125
tp3023
a(I1
I2
I1
I2
g1111
tp3024
a(I1
I2
I2
I1
g1111
tp3025
a(I1
I3
I1
I3
g1096
tp3026
a(I1
I3
I2
I2
g1407
tp3027
a(I1
I3
I3
I1
g1096
tp3028
a(I2
I1
I1
I2
g1111
tp3029
a(I2
I1
I2
I1
g1111
tp3030
a(I2
I2
I1
I3
g1407
tp3031
a(I2
I2
I2
I2
g1135
tp3032
a(I2
I2
I3
I1
g1407
tp3033
a(I2
I3
I2
I3
g1111
tp3034
a(I2
I3
I3
I2
g1111
tp3035
a(I3
I1
I1
I3
g1096
tp3036
a(I3
I1
I2
I2
g1407
tp3037
a(I3
I1
I3
I1
g1096
tp3038
a(I3
I2
I2
I3
g1111
tp3039
a(I3
I2
I3
I2
g1111
tp3040
a(I3
I3
I3
I3
g1125
tp3041
aas((I2
I01
tp3042
(I2
I01
tp3043
(I2
tp3044
(I2
I01
tp3045
tp3046
(lp3047
(lp3048
(I1
I3
I1
I1
I1
tp3049
a(I1
I3
I2
I2
I1
tp3050
a(I1
I3
I3
I3
I1
tp3051
a(I2
I2
I1
I1
I-1
tp3052
a(I2
I2
I2
I2
I-1
tp3053
a(I2
I2
I3
I3
I-1
tp3054
a(I3
I1
I1
I1
I1
tp3055
a(I3
I1
I2
I2
I1
tp3056
a(I3
I1
I3
I3
I1
tp3057
aa(lp3058
(I1
I2
I1
I2
g187
tp3059
a(I1
I2
I2
I3
g187
tp3060
a(I1
I3
I1
I1
g183
tp3061
a(I1
I3
I3
I3
g187
tp3062
a(I2
I1
I1
I2
g183
tp3063
a(I2
I1
I2
I3
g183
tp3064
a(I2
I3
I2
I1
g183
tp3065
a(I2
I3
I3
I2
g183
tp3066
a(I3
I1
I1
I1
g187
tp3067
a(I3
I1
I3
I3
g183
tp3068
a(I3
I2
I2
I1
g187
tp3069
a(I3
I2
I3
I2
g187
tp3070
aa(lp3071
(I1
I1
I1
I3
g1125
tp3072
a(I1
I2
I1
I2
g1118
tp3073
a(I1
I2
I2
I3
g1111
tp3074
a(I1
I3
I1
I1
g1096
tp3075
a(I1
I3
I2
I2
g1103
tp3076
a(I1
I3
I3
I3
g1096
tp3077
a(I2
I1
I1
I2
g1118
tp3078
a(I2
I1
I2
I3
g1111
tp3079
a(I2
I2
I1
I1
g1407
tp3080
a(I2
I2
I2
I2
g1726
tp3081
a(I2
I2
I3
I3
g1407
tp3082
a(I2
I3
I2
I1
g1111
tp3083
a(I2
I3
I3
I2
g1118
tp3084
a(I3
I1
I1
I1
g1096
tp3085
a(I3
I1
I2
I2
g1103
tp3086
a(I3
I1
I3
I3
g1096
tp3087
a(I3
I2
I2
I1
g1111
tp3088
a(I3
I2
I3
I2
g1118
tp3089
a(I3
I3
I3
I1
g1125
tp3090
aas((I1
tp3091
(I2
I01
tp3092
(I2
tp3093
(I1
I01
tp3094
tp3095
(lp3096
(lp3097
(I1
I1
I1
I1
g798
tp3098
a(I1
I1
I2
I2
g811
tp3099
a(I1
I2
I2
I1
g803
tp3100
a(I1
I2
I3
I2
g811
tp3101
a(I2
I2
I1
I1
g811
tp3102
a(I2
I2
I2
I2
g803
tp3103
a(I2
I3
I2
I1
g811
tp3104
a(I2
I3
I3
I2
g798
tp3105
aa(lp3106
(I1
I1
I1
I1
g838
tp3107
a(I1
I1
I2
I2
g807
tp3108
a(I1
I2
I2
I1
g811
tp3109
a(I1
I2
I3
I2
g807
tp3110
a(I1
I3
I3
I1
g208
tp3111
a(I2
I1
I1
I2
g208
tp3112
a(I2
I2
I1
I1
g807
tp3113
a(I2
I2
I2
I2
g811
tp3114
a(I2
I3
I2
I1
g807
tp3115
a(I2
I3
I3
I2
g838
tp3116
aas((I1
I01
tp3117
(I2
tp3118
(I2
I01
tp3119
(I1
tp3120
tp3121
(lp3122
(lp3123
(I1
I1
I1
I1
g798
tp3124
a(I1
I1
I2
I2
g811
tp3125
a(I1
I2
I2
I1
g803
tp3126
a(I1
I2
I3
I2
g811
tp3127
a(I2
I2
I1
I1
g811
tp3128
a(I2
I2
I2
I2
g803
tp3129
a(I2
I3
I2
I1
g811
tp3130
a(I2
I3
I3
I2
g798
tp3131
aa(lp3132
(I1
I1
I1
I1
g838
tp3133
a(I1
I1
I2
I2
g807
tp3134
a(I1
I2
I2
I1
g811
tp3135
a(I1
I2
I3
I2
g807
tp3136
a(I1
I3
I3
I1
g208
tp3137
a(I2
I1
I1
I2
g208
tp3138
a(I2
I2
I1
I1
g807
tp3139
a(I2
I2
I2
I2
g811
tp3140
a(I2
I3
I2
I1
g807
tp3141
a(I2
I3
I3
I2
g838
tp3142
aas((I1
I01
tp3143
(I1
tp3144
(I1
I01
tp3145
(I1
tp3146
tp3147
(lp3148
(lp3149
(I1
I1
I1
I1
I1
tp3150
a(I1
I1
I2
I2
I1
tp3151
a(I2
I2
I1
I1
I1
tp3152
a(I2
I2
I2
I2
I1
tp3153
aa(lp3154
(I1
I1
I1
I1
g803
tp3155
a(I1
I1
I2
I2
g807
tp3156
a(I1
I2
I2
I1
g798
tp3157
a(I2
I1
I1
I2
g798
tp3158
a(I2
I2
I1
I1
g807
tp3159
a(I2
I2
I2
I2
g803
tp3160
aas((I2
tp3161
(I1
I01
tp3162
(I1
I01
tp3163
(I2
I01
tp3164
tp3165
(lp3166
(lp3167
(I1
I1
I1
I2
g811
tp3168
a(I1
I1
I2
I1
g818
tp3169
a(I2
I1
I1
I3
g811
tp3170
a(I2
I1
I2
I2
g807
tp3171
a(I2
I2
I1
I2
g803
tp3172
a(I2
I2
I2
I1
g791
tp3173
a(I3
I2
I1
I3
g798
tp3174
a(I3
I2
I2
I2
g791
tp3175
aa(lp3176
(I1
I1
I1
I2
g803
tp3177
a(I1
I1
I2
I1
g838
tp3178
a(I1
I2
I1
I1
g831
tp3179
a(I2
I1
I1
I3
g803
tp3180
a(I2
I1
I2
I2
g811
tp3181
a(I2
I2
I1
I2
g791
tp3182
a(I2
I2
I2
I1
g807
tp3183
a(I3
I1
I2
I3
g208
tp3184
a(I3
I2
I1
I3
g825
tp3185
a(I3
I2
I2
I2
g807
tp3186
aas((I1
tp3187
(I2
I01
tp3188
(I2
I01
tp3189
(I1
tp3190
tp3191
(lp3192
(lp3193
(I1
I1
I2
I1
g811
tp3194
a(I1
I1
I3
I2
g798
tp3195
a(I1
I2
I1
I1
g791
tp3196
a(I1
I2
I2
I2
g807
tp3197
a(I2
I2
I2
I1
g803
tp3198
a(I2
I2
I3
I2
g811
tp3199
a(I2
I3
I1
I1
g818
tp3200
a(I2
I3
I2
I2
g791
tp3201
aa(lp3202
(I1
I1
I2
I1
g803
tp3203
a(I1
I1
I3
I2
g825
tp3204
a(I1
I2
I1
I1
g807
tp3205
a(I1
I2
I2
I2
g811
tp3206
a(I1
I3
I1
I2
g831
tp3207
a(I2
I1
I3
I1
g208
tp3208
a(I2
I2
I2
I1
g791
tp3209
a(I2
I2
I3
I2
g803
tp3210
a(I2
I3
I1
I1
g838
tp3211
a(I2
I3
I2
I2
g807
tp3212
aas((I1
tp3213
(I2
I01
tp3214
(I1
I01
tp3215
(I2
tp3216
tp3217
(lp3218
(lp3219
(I1
I1
I1
I1
g798
tp3220
a(I1
I1
I2
I2
g811
tp3221
a(I1
I2
I1
I2
g803
tp3222
a(I1
I2
I2
I3
g811
tp3223
a(I2
I2
I1
I1
g811
tp3224
a(I2
I2
I2
I2
g803
tp3225
a(I2
I3
I1
I2
g811
tp3226
a(I2
I3
I2
I3
g798
tp3227
aa(lp3228
(I1
I1
I1
I1
g838
tp3229
a(I1
I1
I2
I2
g807
tp3230
a(I1
I2
I1
I2
g811
tp3231
a(I1
I2
I2
I3
g807
tp3232
a(I1
I3
I1
I3
g208
tp3233
a(I2
I1
I2
I1
g208
tp3234
a(I2
I2
I1
I1
g807
tp3235
a(I2
I2
I2
I2
g811
tp3236
a(I2
I3
I1
I2
g807
tp3237
a(I2
I3
I2
I3
g838
tp3238
aas((I1
I01
tp3239
(I1
I01
tp3240
(I2
tp3241
(I2
I01
tp3242
tp3243
(lp3244
(lp3245
(I1
I2
I1
I1
I-1
tp3246
a(I1
I2
I2
I2
I-1
tp3247
a(I1
I2
I3
I3
I-1
tp3248
a(I2
I1
I1
I1
I1
tp3249
a(I2
I1
I2
I2
I1
tp3250
a(I2
I1
I3
I3
I1
tp3251
aa(lp3252
(I1
I1
I1
I2
I1
tp3253
a(I1
I1
I2
I3
I1
tp3254
a(I1
I2
I1
I1
g255
tp3255
a(I1
I2
I3
I3
g776
tp3256
a(I2
I1
I1
I1
g255
tp3257
a(I2
I1
I3
I3
g776
tp3258
a(I2
I2
I2
I1
I-1
tp3259
a(I2
I2
I3
I2
I-1
tp3260
aas((I1
tp3261
(I2
tp3262
(I2
tp3263
(I1
I01
tp3264
tp3265
(lp3266
(lp3267
(I1
I2
I2
I1
g803
tp3268
a(I1
I2
I3
I2
g811
tp3269
a(I1
I3
I1
I1
g818
tp3270
a(I1
I3
I2
I2
g791
tp3271
a(I2
I1
I2
I1
g791
tp3272
a(I2
I1
I3
I2
g818
tp3273
a(I2
I2
I1
I1
g811
tp3274
a(I2
I2
I2
I2
g803
tp3275
aa(lp3276
(I1
I1
I3
I1
g831
tp3277
a(I1
I2
I2
I1
g811
tp3278
a(I1
I2
I3
I2
g807
tp3279
a(I1
I3
I1
I1
g825
tp3280
a(I1
I3
I2
I2
g803
tp3281
a(I2
I1
I2
I1
g803
tp3282
a(I2
I1
I3
I2
g825
tp3283
a(I2
I2
I1
I1
g807
tp3284
a(I2
I2
I2
I2
g811
tp3285
a(I2
I3
I1
I2
g831
tp3286
aas((I1
I01
tp3287
(I2
I01
tp3288
(I2
tp3289
(I1
I01
tp3290
tp3291
(lp3292
(lp3293
(I1
I2
I1
I1
g811
tp3294
a(I1
I2
I2
I2
g803
tp3295
a(I1
I3
I2
I1
g811
tp3296
a(I1
I3
I3
I2
g798
tp3297
a(I2
I1
I1
I1
g818
tp3298
a(I2
I1
I2
I2
g791
tp3299
a(I2
I2
I2
I1
g807
tp3300
a(I2
I2
I3
I2
g791
tp3301
aa(lp3302
(I1
I1
I1
I2
g208
tp3303
a(I1
I2
I1
I1
g807
tp3304
a(I1
I2
I2
I2
g811
tp3305
a(I1
I3
I2
I1
g807
tp3306
a(I1
I3
I3
I2
g838
tp3307
a(I2
I1
I1
I1
g825
tp3308
a(I2
I1
I2
I2
g803
tp3309
a(I2
I2
I2
I1
g791
tp3310
a(I2
I2
I3
I2
g803
tp3311
a(I2
I3
I3
I1
g831
tp3312
aas((I2
tp3313
(I1
I01
tp3314
(I2
I01
tp3315
(I1
I01
tp3316
tp3317
(lp3318
(lp3319
(I1
I1
I1
I2
g818
tp3320
a(I1
I1
I2
I1
g811
tp3321
a(I2
I1
I2
I2
g807
tp3322
a(I2
I1
I3
I1
g811
tp3323
a(I2
I2
I1
I2
g791
tp3324
a(I2
I2
I2
I1
g803
tp3325
a(I3
I2
I2
I2
g791
tp3326
a(I3
I2
I3
I1
g798
tp3327
aa(lp3328
(I1
I1
I1
I2
g838
tp3329
a(I1
I1
I2
I1
g803
tp3330
a(I1
I2
I1
I1
g831
tp3331
a(I2
I1
I2
I2
g811
tp3332
a(I2
I1
I3
I1
g803
tp3333
a(I2
I2
I1
I2
g807
tp3334
a(I2
I2
I2
I1
g791
tp3335
a(I3
I1
I3
I2
g208
tp3336
a(I3
I2
I2
I2
g807
tp3337
a(I3
I2
I3
I1
g825
tp3338
aas((I2
I01
tp3339
(I2
tp3340
(I1
tp3341
(I1
I01
tp3342
tp3343
(lp3344
(lp3345
(I1
I1
I1
I1
I1
tp3346
a(I1
I1
I2
I2
I1
tp3347
a(I2
I2
I1
I1
I1
tp3348
a(I2
I2
I2
I2
I1
tp3349
a(I3
I3
I1
I1
I1
tp3350
a(I3
I3
I2
I2
I1
tp3351
aa(lp3352
(I1
I1
I1
I1
g776
tp3353
a(I1
I1
I2
I2
g255
tp3354
a(I1
I2
I1
I2
I1
tp3355
a(I2
I1
I2
I1
I1
tp3356
a(I2
I3
I1
I2
I1
tp3357
a(I3
I2
I2
I1
I1
tp3358
a(I3
I3
I1
I1
g255
tp3359
a(I3
I3
I2
I2
g776
tp3360
aas((I1
tp3361
(I2
I01
tp3362
(I1
I01
tp3363
(I2
I01
tp3364
tp3365
(lp3366
(lp3367
(I1
I1
I1
I3
g818
tp3368
a(I1
I1
I2
I2
g811
tp3369
a(I1
I2
I1
I2
g803
tp3370
a(I1
I2
I2
I1
g791
tp3371
a(I2
I2
I1
I3
g791
tp3372
a(I2
I2
I2
I2
g803
tp3373
a(I2
I3
I1
I2
g811
tp3374
a(I2
I3
I2
I1
g818
tp3375
aa(lp3376
(I1
I1
I1
I3
g838
tp3377
a(I1
I1
I2
I2
g803
tp3378
a(I1
I2
I1
I2
g791
tp3379
a(I1
I2
I2
I1
g807
tp3380
a(I1
I3
I1
I1
g208
tp3381
a(I2
I1
I2
I3
g208
tp3382
a(I2
I2
I1
I3
g807
tp3383
a(I2
I2
I2
I2
g791
tp3384
a(I2
I3
I1
I2
g803
tp3385
a(I2
I3
I2
I1
g838
tp3386
aas((I2
tp3387
(I2
I01
tp3388
(I1
tp3389
(I1
I01
tp3390
tp3391
(lp3392
(lp3393
(I1
I1
I1
I1
I1
tp3394
a(I1
I1
I2
I2
I1
tp3395
a(I2
I2
I1
I1
I1
tp3396
a(I2
I2
I2
I2
I1
tp3397
a(I3
I3
I1
I1
I1
tp3398
a(I3
I3
I2
I2
I1
tp3399
aa(lp3400
(I1
I1
I1
I1
g255
tp3401
a(I1
I1
I2
I2
g776
tp3402
a(I1
I2
I2
I1
I-1
tp3403
a(I2
I1
I1
I2
I-1
tp3404
a(I2
I3
I2
I1
I-1
tp3405
a(I3
I2
I1
I2
I-1
tp3406
a(I3
I3
I1
I1
g776
tp3407
a(I3
I3
I2
I2
g255
tp3408
aas((I2
I01
tp3409
(I2
I01
tp3410
(I1
tp3411
(I1
I01
tp3412
tp3413
(lp3414
(lp3415
(I1
I3
I1
I1
I1
tp3416
a(I1
I3
I2
I2
I1
tp3417
a(I2
I2
I1
I1
I-1
tp3418
a(I2
I2
I2
I2
I-1
tp3419
a(I3
I1
I1
I1
I1
tp3420
a(I3
I1
I2
I2
I1
tp3421
aa(lp3422
(I1
I2
I1
I2
I1
tp3423
a(I1
I3
I1
I1
g255
tp3424
a(I1
I3
I2
I2
g776
tp3425
a(I2
I1
I1
I2
I-1
tp3426
a(I2
I3
I2
I1
I-1
tp3427
a(I3
I1
I1
I1
g776
tp3428
a(I3
I1
I2
I2
g255
tp3429
a(I3
I2
I2
I1
I1
tp3430
aas((I1
I01
tp3431
(I1
tp3432
(I1
tp3433
(I1
I01
tp3434
tp3435
(lp3436
(lp3437
(I1
I1
I1
I1
I1
tp3438
a(I1
I1
I2
I2
I1
tp3439
a(I2
I2
I1
I1
I1
tp3440
a(I2
I2
I2
I2
I1
tp3441
aa(lp3442
(I1
I1
I1
I1
g803
tp3443
a(I1
I1
I2
I2
g807
tp3444
a(I1
I2
I1
I2
g798
tp3445
a(I2
I1
I2
I1
g798
tp3446
a(I2
I2
I1
I1
g807
tp3447
a(I2
I2
I2
I2
g803
tp3448
aas((I2
tp3449
(I2
tp3450
(I1
tp3451
(I1
tp3452
tp3453
(lp3454
(lp3455
(I1
I3
I1
I2
I1
tp3456
a(I1
I3
I2
I1
I-1
tp3457
a(I2
I2
I1
I2
I-1
tp3458
a(I2
I2
I2
I1
I1
tp3459
a(I3
I1
I1
I2
I1
tp3460
a(I3
I1
I2
I1
I-1
tp3461
aa(lp3462
(I1
I2
I2
I2
I1
tp3463
a(I1
I3
I1
I2
g255
tp3464
a(I1
I3
I2
I1
g255
tp3465
a(I2
I1
I2
I2
I-1
tp3466
a(I2
I3
I1
I1
I1
tp3467
a(I3
I1
I1
I2
g776
tp3468
a(I3
I1
I2
I1
g776
tp3469
a(I3
I2
I1
I1
I-1
tp3470
aas((I2
tp3471
(I1
tp3472
(I2
tp3473
(I1
I01
tp3474
tp3475
(lp3476
(lp3477
(I1
I2
I2
I1
g811
tp3478
a(I1
I2
I3
I2
g798
tp3479
a(I2
I1
I2
I1
g807
tp3480
a(I2
I1
I3
I2
g791
tp3481
a(I2
I2
I1
I1
g791
tp3482
a(I2
I2
I2
I2
g807
tp3483
a(I3
I1
I1
I1
g798
tp3484
a(I3
I1
I2
I2
g811
tp3485
aa(lp3486
(I1
I1
I3
I1
g208
tp3487
a(I1
I2
I2
I1
g807
tp3488
a(I1
I2
I3
I2
g838
tp3489
a(I2
I1
I2
I1
g791
tp3490
a(I2
I1
I3
I2
g803
tp3491
a(I2
I2
I1
I1
g803
tp3492
a(I2
I2
I2
I2
g791
tp3493
a(I3
I1
I1
I1
g838
tp3494
a(I3
I1
I2
I2
g807
tp3495
a(I3
I2
I1
I2
g208
tp3496
aas((I1
tp3497
(I2
tp3498
(I1
I01
tp3499
(I2
tp3500
tp3501
(lp3502
(lp3503
(I1
I2
I1
I2
g803
tp3504
a(I1
I2
I2
I3
g811
tp3505
a(I1
I3
I1
I1
g818
tp3506
a(I1
I3
I2
I2
g791
tp3507
a(I2
I1
I1
I2
g791
tp3508
a(I2
I1
I2
I3
g818
tp3509
a(I2
I2
I1
I1
g811
tp3510
a(I2
I2
I2
I2
g803
tp3511
aa(lp3512
(I1
I1
I1
I3
g831
tp3513
a(I1
I2
I1
I2
g811
tp3514
a(I1
I2
I2
I3
g807
tp3515
a(I1
I3
I1
I1
g825
tp3516
a(I1
I3
I2
I2
g803
tp3517
a(I2
I1
I1
I2
g803
tp3518
a(I2
I1
I2
I3
g825
tp3519
a(I2
I2
I1
I1
g807
tp3520
a(I2
I2
I2
I2
g811
tp3521
a(I2
I3
I2
I1
g831
tp3522
aas((I2
tp3523
(I2
I01
tp3524
(I2
I01
tp3525
(I2
I01
tp3526
tp3527
(lp3528
(lp3529
(I1
I1
I1
I3
I1
tp3530
a(I1
I1
I2
I2
I-1
tp3531
a(I1
I1
I3
I1
I1
tp3532
a(I2
I2
I1
I3
I1
tp3533
a(I2
I2
I2
I2
I-1
tp3534
a(I2
I2
I3
I1
I1
tp3535
a(I3
I3
I1
I3
I1
tp3536
a(I3
I3
I2
I2
I-1
tp3537
a(I3
I3
I3
I1
I1
tp3538
aa(lp3539
(I1
I1
I1
I3
g183
tp3540
a(I1
I1
I3
I1
g187
tp3541
a(I1
I2
I1
I2
g187
tp3542
a(I1
I2
I2
I1
g183
tp3543
a(I2
I1
I2
I3
g183
tp3544
a(I2
I1
I3
I2
g187
tp3545
a(I2
I3
I1
I2
g187
tp3546
a(I2
I3
I2
I1
g183
tp3547
a(I3
I2
I2
I3
g183
tp3548
a(I3
I2
I3
I2
g187
tp3549
a(I3
I3
I1
I3
g187
tp3550
a(I3
I3
I3
I1
g183
tp3551
aa(lp3552
(I1
I1
I1
I3
g1387
tp3553
a(I1
I1
I2
I2
g1103
tp3554
a(I1
I1
I3
I1
g1387
tp3555
a(I1
I2
I1
I2
g1111
tp3556
a(I1
I2
I2
I1
g1111
tp3557
a(I1
I3
I1
I1
g1398
tp3558
a(I2
I1
I2
I3
g1118
tp3559
a(I2
I1
I3
I2
g1118
tp3560
a(I2
I2
I1
I3
g1407
tp3561
a(I2
I2
I2
I2
g1135
tp3562
a(I2
I2
I3
I1
g1407
tp3563
a(I2
I3
I1
I2
g1118
tp3564
a(I2
I3
I2
I1
g1118
tp3565
a(I3
I1
I3
I3
g1398
tp3566
a(I3
I2
I2
I3
g1111
tp3567
a(I3
I2
I3
I2
g1111
tp3568
a(I3
I3
I1
I3
g1387
tp3569
a(I3
I3
I2
I2
g1103
tp3570
a(I3
I3
I3
I1
g1387
tp3571
aas((I1
tp3572
(I2
I01
tp3573
(I1
tp3574
(I2
I01
tp3575
tp3576
(lp3577
(lp3578
(I1
I1
I1
I2
g811
tp3579
a(I1
I1
I2
I3
g798
tp3580
a(I1
I2
I1
I1
g791
tp3581
a(I1
I2
I2
I2
g807
tp3582
a(I2
I2
I1
I2
g803
tp3583
a(I2
I2
I2
I3
g811
tp3584
a(I2
I3
I1
I1
g818
tp3585
a(I2
I3
I2
I2
g791
tp3586
aa(lp3587
(I1
I1
I1
I2
g803
tp3588
a(I1
I1
I2
I3
g825
tp3589
a(I1
I2
I1
I1
g807
tp3590
a(I1
I2
I2
I2
g811
tp3591
a(I1
I3
I2
I1
g831
tp3592
a(I2
I1
I1
I3
g208
tp3593
a(I2
I2
I1
I2
g791
tp3594
a(I2
I2
I2
I3
g803
tp3595
a(I2
I3
I1
I1
g838
tp3596
a(I2
I3
I2
I2
g807
tp3597
aas((I1
I01
tp3598
(I1
I01
tp3599
(I2
I01
tp3600
(I2
tp3601
tp3602
(lp3603
(lp3604
(I1
I2
I1
I1
I-1
tp3605
a(I1
I2
I2
I2
I-1
tp3606
a(I1
I2
I3
I3
I-1
tp3607
a(I2
I1
I1
I1
I1
tp3608
a(I2
I1
I2
I2
I1
tp3609
a(I2
I1
I3
I3
I1
tp3610
aa(lp3611
(I1
I1
I2
I1
I1
tp3612
a(I1
I1
I3
I2
I1
tp3613
a(I1
I2
I1
I1
g255
tp3614
a(I1
I2
I3
I3
g776
tp3615
a(I2
I1
I1
I1
g255
tp3616
a(I2
I1
I3
I3
g776
tp3617
a(I2
I2
I1
I2
I-1
tp3618
a(I2
I2
I2
I3
I-1
tp3619
aas((I2
I01
tp3620
(I1
tp3621
(I1
tp3622
(I2
tp3623
tp3624
(lp3625
(lp3626
(I1
I1
I1
I2
g791
tp3627
a(I1
I1
I2
I1
g798
tp3628
a(I2
I1
I1
I3
g791
tp3629
a(I2
I1
I2
I2
g803
tp3630
a(I2
I2
I1
I2
g807
tp3631
a(I2
I2
I2
I1
g811
tp3632
a(I3
I2
I1
I3
g818
tp3633
a(I3
I2
I2
I2
g811
tp3634
aa(lp3635
(I1
I1
I1
I2
g807
tp3636
a(I1
I1
I2
I1
g825
tp3637
a(I1
I2
I1
I1
g208
tp3638
a(I2
I1
I1
I3
g807
tp3639
a(I2
I1
I2
I2
g791
tp3640
a(I2
I2
I1
I2
g811
tp3641
a(I2
I2
I2
I1
g803
tp3642
a(I3
I1
I2
I3
g831
tp3643
a(I3
I2
I1
I3
g838
tp3644
a(I3
I2
I2
I2
g803
tp3645
aas((I2
tp3646
(I2
tp3647
(I2
tp3648
(I2
tp3649
tp3650
(lp3651
(lp3652
(I1
I3
I1
I3
I1
tp3653
a(I1
I3
I2
I2
I-1
tp3654
a(I1
I3
I3
I1
I1
tp3655
a(I2
I2
I1
I3
I-1
tp3656
a(I2
I2
I2
I2
I1
tp3657
a(I2
I2
I3
I1
I-1
tp3658
a(I3
I1
I1
I3
I1
tp3659
a(I3
I1
I2
I2
I-1
tp3660
a(I3
I1
I3
I1
I1
tp3661
aa(lp3662
(I1
I2
I2
I3
g183
tp3663
a(I1
I2
I3
I2
g187
tp3664
a(I1
I3
I1
I3
g187
tp3665
a(I1
I3
I3
I1
g183
tp3666
a(I2
I1
I2
I3
g187
tp3667
a(I2
I1
I3
I2
g183
tp3668
a(I2
I3
I1
I2
g183
tp3669
a(I2
I3
I2
I1
g187
tp3670
a(I3
I1
I1
I3
g183
tp3671
a(I3
I1
I3
I1
g187
tp3672
a(I3
I2
I1
I2
g187
tp3673
a(I3
I2
I2
I1
g183
tp3674
aa(lp3675
(I1
I1
I3
I3
g1125
tp3676
a(I1
I2
I2
I3
g1118
tp3677
a(I1
I2
I3
I2
g1118
tp3678
a(I1
I3
I1
I3
g1096
tp3679
a(I1
I3
I2
I2
g1407
tp3680
a(I1
I3
I3
I1
g1096
tp3681
a(I2
I1
I2
I3
g1118
tp3682
a(I2
I1
I3
I2
g1118
tp3683
a(I2
I2
I1
I3
g1407
tp3684
a(I2
I2
I2
I2
g1135
tp3685
a(I2
I2
I3
I1
g1407
tp3686
a(I2
I3
I1
I2
g1118
tp3687
a(I2
I3
I2
I1
g1118
tp3688
a(I3
I1
I1
I3
g1096
tp3689
a(I3
I1
I2
I2
g1407
tp3690
a(I3
I1
I3
I1
g1096
tp3691
a(I3
I2
I1
I2
g1118
tp3692
a(I3
I2
I2
I1
g1118
tp3693
a(I3
I3
I1
I1
g1125
tp3694
aas((I2
tp3695
(I2
I01
tp3696
(I1
tp3697
(I1
tp3698
tp3699
(lp3700
(lp3701
(I1
I1
I1
I2
I1
tp3702
a(I1
I1
I2
I1
I-1
tp3703
a(I2
I2
I1
I2
I1
tp3704
a(I2
I2
I2
I1
I-1
tp3705
a(I3
I3
I1
I2
I1
tp3706
a(I3
I3
I2
I1
I-1
tp3707
aa(lp3708
(I1
I1
I1
I2
g776
tp3709
a(I1
I1
I2
I1
g776
tp3710
a(I1
I2
I2
I2
I1
tp3711
a(I2
I1
I1
I1
I-1
tp3712
a(I2
I3
I2
I2
I1
tp3713
a(I3
I2
I1
I1
I-1
tp3714
a(I3
I3
I1
I2
g255
tp3715
a(I3
I3
I2
I1
g255
tp3716
aas((I1
tp3717
(I2
tp3718
(I2
I01
tp3719
(I1
tp3720
tp3721
(lp3722
(lp3723
(I1
I2
I1
I1
g791
tp3724
a(I1
I2
I2
I2
g807
tp3725
a(I1
I3
I2
I1
g791
tp3726
a(I1
I3
I3
I2
g818
tp3727
a(I2
I1
I1
I1
g798
tp3728
a(I2
I1
I2
I2
g811
tp3729
a(I2
I2
I2
I1
g803
tp3730
a(I2
I2
I3
I2
g811
tp3731
aa(lp3732
(I1
I1
I1
I2
g208
tp3733
a(I1
I2
I1
I1
g807
tp3734
a(I1
I2
I2
I2
g811
tp3735
a(I1
I3
I2
I1
g807
tp3736
a(I1
I3
I3
I2
g838
tp3737
a(I2
I1
I1
I1
g825
tp3738
a(I2
I1
I2
I2
g803
tp3739
a(I2
I2
I2
I1
g791
tp3740
a(I2
I2
I3
I2
g803
tp3741
a(I2
I3
I3
I1
g831
tp3742
aas((I1
I01
tp3743
(I2
I01
tp3744
(I1
tp3745
(I2
I01
tp3746
tp3747
(lp3748
(lp3749
(I1
I2
I1
I2
g803
tp3750
a(I1
I2
I2
I3
g811
tp3751
a(I1
I3
I1
I1
g818
tp3752
a(I1
I3
I2
I2
g791
tp3753
a(I2
I1
I1
I2
g791
tp3754
a(I2
I1
I2
I3
g818
tp3755
a(I2
I2
I1
I1
g811
tp3756
a(I2
I2
I2
I2
g803
tp3757
aa(lp3758
(I1
I1
I1
I3
g208
tp3759
a(I1
I2
I1
I2
g791
tp3760
a(I1
I2
I2
I3
g803
tp3761
a(I1
I3
I1
I1
g838
tp3762
a(I1
I3
I2
I2
g807
tp3763
a(I2
I1
I1
I2
g807
tp3764
a(I2
I1
I2
I3
g838
tp3765
a(I2
I2
I1
I1
g803
tp3766
a(I2
I2
I2
I2
g791
tp3767
a(I2
I3
I2
I1
g208
tp3768
aas((I2
tp3769
(I2
I01
tp3770
(I1
I01
tp3771
(I1
I01
tp3772
tp3773
(lp3774
(lp3775
(I1
I1
I1
I2
I-1
tp3776
a(I1
I1
I2
I1
I1
tp3777
a(I2
I2
I1
I2
I-1
tp3778
a(I2
I2
I2
I1
I1
tp3779
a(I3
I3
I1
I2
I-1
tp3780
a(I3
I3
I2
I1
I1
tp3781
aa(lp3782
(I1
I1
I1
I2
g255
tp3783
a(I1
I1
I2
I1
g255
tp3784
a(I1
I2
I1
I1
I1
tp3785
a(I2
I1
I2
I2
I-1
tp3786
a(I2
I3
I1
I1
I1
tp3787
a(I3
I2
I2
I2
I-1
tp3788
a(I3
I3
I1
I2
g776
tp3789
a(I3
I3
I2
I1
g776
tp3790
aas((I2
tp3791
(I2
tp3792
(I2
tp3793
(I2
I01
tp3794
tp3795
(lp3796
(lp3797
(I1
I3
I1
I1
I1
tp3798
a(I1
I3
I2
I2
I1
tp3799
a(I1
I3
I3
I3
I1
tp3800
a(I2
I2
I1
I1
I-1
tp3801
a(I2
I2
I2
I2
I-1
tp3802
a(I2
I2
I3
I3
I-1
tp3803
a(I3
I1
I1
I1
I1
tp3804
a(I3
I1
I2
I2
I1
tp3805
a(I3
I1
I3
I3
I1
tp3806
aa(lp3807
(I1
I2
I2
I1
g183
tp3808
a(I1
I2
I3
I2
g183
tp3809
a(I1
I3
I1
I1
g187
tp3810
a(I1
I3
I3
I3
g183
tp3811
a(I2
I1
I2
I1
g187
tp3812
a(I2
I1
I3
I2
g187
tp3813
a(I2
I3
I1
I2
g187
tp3814
a(I2
I3
I2
I3
g187
tp3815
a(I3
I1
I1
I1
g183
tp3816
a(I3
I1
I3
I3
g187
tp3817
a(I3
I2
I1
I2
g183
tp3818
a(I3
I2
I2
I3
g183
tp3819
aa(lp3820
(I1
I1
I3
I1
g1125
tp3821
a(I1
I2
I2
I1
g1118
tp3822
a(I1
I2
I3
I2
g1111
tp3823
a(I1
I3
I1
I1
g1096
tp3824
a(I1
I3
I2
I2
g1103
tp3825
a(I1
I3
I3
I3
g1096
tp3826
a(I2
I1
I2
I1
g1118
tp3827
a(I2
I1
I3
I2
g1111
tp3828
a(I2
I2
I1
I1
g1407
tp3829
a(I2
I2
I2
I2
g1726
tp3830
a(I2
I2
I3
I3
g1407
tp3831
a(I2
I3
I1
I2
g1111
tp3832
a(I2
I3
I2
I3
g1118
tp3833
a(I3
I1
I1
I1
g1096
tp3834
a(I3
I1
I2
I2
g1103
tp3835
a(I3
I1
I3
I3
g1096
tp3836
a(I3
I2
I1
I2
g1111
tp3837
a(I3
I2
I2
I3
g1118
tp3838
a(I3
I3
I1
I3
g1125
tp3839
aas((I1
I01
tp3840
(I1
I01
tp3841
(I1
tp3842
(I1
I01
tp3843
tp3844
(lp3845
(lp3846
(I1
I2
I1
I1
I-1
tp3847
a(I1
I2
I2
I2
I-1
tp3848
a(I2
I1
I1
I1
I1
tp3849
a(I2
I1
I2
I2
I1
tp3850
aa(lp3851
(I1
I1
I1
I2
g798
tp3852
a(I1
I2
I1
I1
g807
tp3853
a(I1
I2
I2
I2
g803
tp3854
a(I2
I1
I1
I1
g807
tp3855
a(I2
I1
I2
I2
g803
tp3856
a(I2
I2
I2
I1
g818
tp3857
aas((I1
I01
tp3858
(I2
I01
tp3859
(I2
I01
tp3860
(I1
tp3861
tp3862
(lp3863
(lp3864
(I1
I2
I2
I1
g803
tp3865
a(I1
I2
I3
I2
g811
tp3866
a(I1
I3
I1
I1
g818
tp3867
a(I1
I3
I2
I2
g791
tp3868
a(I2
I1
I2
I1
g791
tp3869
a(I2
I1
I3
I2
g818
tp3870
a(I2
I2
I1
I1
g811
tp3871
a(I2
I2
I2
I2
g803
tp3872
aa(lp3873
(I1
I1
I3
I1
g208
tp3874
a(I1
I2
I2
I1
g791
tp3875
a(I1
I2
I3
I2
g803
tp3876
a(I1
I3
I1
I1
g838
tp3877
a(I1
I3
I2
I2
g807
tp3878
a(I2
I1
I2
I1
g807
tp3879
a(I2
I1
I3
I2
g838
tp3880
a(I2
I2
I1
I1
g803
tp3881
a(I2
I2
I2
I2
g791
tp3882
a(I2
I3
I1
I2
g208
tp3883
aas((I2
I01
tp3884
(I2
I01
tp3885
(I2
I01
tp3886
(I2
tp3887
tp3888
(lp3889
(lp3890
(I1
I3
I1
I1
I1
tp3891
a(I1
I3
I2
I2
I1
tp3892
a(I1
I3
I3
I3
I1
tp3893
a(I2
I2
I1
I1
I-1
tp3894
a(I2
I2
I2
I2
I-1
tp3895
a(I2
I2
I3
I3
I-1
tp3896
a(I3
I1
I1
I1
I1
tp3897
a(I3
I1
I2
I2
I1
tp3898
a(I3
I1
I3
I3
I1
tp3899
aa(lp3900
(I1
I2
I2
I1
g187
tp3901
a(I1
I2
I3
I2
g187
tp3902
a(I1
I3
I1
I1
g183
tp3903
a(I1
I3
I3
I3
g187
tp3904
a(I2
I1
I2
I1
g183
tp3905
a(I2
I1
I3
I2
g183
tp3906
a(I2
I3
I1
I2
g183
tp3907
a(I2
I3
I2
I3
g183
tp3908
a(I3
I1
I1
I1
g187
tp3909
a(I3
I1
I3
I3
g183
tp3910
a(I3
I2
I1
I2
g187
tp3911
a(I3
I2
I2
I3
g187
tp3912
aa(lp3913
(I1
I1
I3
I1
g1125
tp3914
a(I1
I2
I2
I1
g1118
tp3915
a(I1
I2
I3
I2
g1111
tp3916
a(I1
I3
I1
I1
g1096
tp3917
a(I1
I3
I2
I2
g1103
tp3918
a(I1
I3
I3
I3
g1096
tp3919
a(I2
I1
I2
I1
g1118
tp3920
a(I2
I1
I3
I2
g1111
tp3921
a(I2
I2
I1
I1
g1407
tp3922
a(I2
I2
I2
I2
g1726
tp3923
a(I2
I2
I3
I3
g1407
tp3924
a(I2
I3
I1
I2
g1111
tp3925
a(I2
I3
I2
I3
g1118
tp3926
a(I3
I1
I1
I1
g1096
tp3927
a(I3
I1
I2
I2
g1103
tp3928
a(I3
I1
I3
I3
g1096
tp3929
a(I3
I2
I1
I2
g1111
tp3930
a(I3
I2
I2
I3
g1118
tp3931
a(I3
I3
I1
I3
g1125
tp3932
aas((I2
tp3933
(I1
tp3934
(I2
tp3935
(I1
tp3936
tp3937
(lp3938
(lp3939
(I1
I2
I2
I2
g791
tp3940
a(I1
I2
I3
I1
g798
tp3941
a(I2
I1
I2
I2
g803
tp3942
a(I2
I1
I3
I1
g791
tp3943
a(I2
I2
I1
I2
g811
tp3944
a(I2
I2
I2
I1
g807
tp3945
a(I3
I1
I1
I2
g818
tp3946
a(I3
I1
I2
I1
g811
tp3947
aa(lp3948
(I1
I1
I3
I2
g831
tp3949
a(I1
I2
I2
I2
g803
tp3950
a(I1
I2
I3
I1
g838
tp3951
a(I2
I1
I2
I2
g811
tp3952
a(I2
I1
I3
I1
g803
tp3953
a(I2
I2
I1
I2
g807
tp3954
a(I2
I2
I2
I1
g791
tp3955
a(I3
I1
I1
I2
g825
tp3956
a(I3
I1
I2
I1
g807
tp3957
a(I3
I2
I1
I1
g208
tp3958
aas((I2
I01
tp3959
(I1
I01
tp3960
(I2
tp3961
(I1
tp3962
tp3963
(lp3964
(lp3965
(I1
I2
I1
I2
g818
tp3966
a(I1
I2
I2
I1
g811
tp3967
a(I2
I1
I1
I2
g811
tp3968
a(I2
I1
I2
I1
g807
tp3969
a(I2
I2
I2
I2
g807
tp3970
a(I2
I2
I3
I1
g811
tp3971
a(I3
I1
I2
I2
g811
tp3972
a(I3
I1
I3
I1
g818
tp3973
aa(lp3974
(I1
I1
I1
I1
g208
tp3975
a(I1
I2
I1
I2
g838
tp3976
a(I1
I2
I2
I1
g803
tp3977
a(I2
I1
I1
I2
g803
tp3978
a(I2
I1
I2
I1
g811
tp3979
a(I2
I2
I2
I2
g811
tp3980
a(I2
I2
I3
I1
g803
tp3981
a(I3
I1
I2
I2
g803
tp3982
a(I3
I1
I3
I1
g838
tp3983
a(I3
I2
I3
I2
g208
tp3984
aas((I1
tp3985
(I2
tp3986
(I2
tp3987
(I1
tp3988
tp3989
(lp3990
(lp3991
(I1
I2
I2
I2
g807
tp3992
a(I1
I2
I3
I1
g811
tp3993
a(I1
I3
I1
I2
g798
tp3994
a(I1
I3
I2
I1
g791
tp3995
a(I2
I1
I2
I2
g811
tp3996
a(I2
I1
I3
I1
g818
tp3997
a(I2
I2
I1
I2
g791
tp3998
a(I2
I2
I2
I1
g803
tp3999
aa(lp4000
(I1
I1
I3
I2
g208
tp4001
a(I1
I2
I2
I2
g791
tp4002
a(I1
I2
I3
I1
g807
tp4003
a(I1
I3
I1
I2
g838
tp4004
a(I1
I3
I2
I1
g803
tp4005
a(I2
I1
I2
I2
g807
tp4006
a(I2
I1
I3
I1
g825
tp4007
a(I2
I2
I1
I2
g803
tp4008
a(I2
I2
I2
I1
g811
tp4009
a(I2
I3
I1
I1
g831
tp4010
aas((I1
tp4011
(I1
tp4012
(I1
I01
tp4013
(I1
tp4014
tp4015
(lp4016
(lp4017
(I1
I2
I1
I1
I-1
tp4018
a(I1
I2
I2
I2
I-1
tp4019
a(I2
I1
I1
I1
I1
tp4020
a(I2
I1
I2
I2
I1
tp4021
aa(lp4022
(I1
I1
I1
I2
g798
tp4023
a(I1
I2
I1
I1
g807
tp4024
a(I1
I2
I2
I2
g803
tp4025
a(I2
I1
I1
I1
g807
tp4026
a(I2
I1
I2
I2
g803
tp4027
a(I2
I2
I2
I1
g818
tp4028
aas((I2
I01
tp4029
(I2
tp4030
(I2
I01
tp4031
(I2
I01
tp4032
tp4033
(lp4034
(lp4035
(I1
I1
I1
I3
I1
tp4036
a(I1
I1
I2
I2
I-1
tp4037
a(I1
I1
I3
I1
I1
tp4038
a(I2
I2
I1
I3
I1
tp4039
a(I2
I2
I2
I2
I-1
tp4040
a(I2
I2
I3
I1
I1
tp4041
a(I3
I3
I1
I3
I1
tp4042
a(I3
I3
I2
I2
I-1
tp4043
a(I3
I3
I3
I1
I1
tp4044
aa(lp4045
(I1
I1
I1
I3
g187
tp4046
a(I1
I1
I3
I1
g183
tp4047
a(I1
I2
I2
I3
g187
tp4048
a(I1
I2
I3
I2
g183
tp4049
a(I2
I1
I1
I2
g183
tp4050
a(I2
I1
I2
I1
g187
tp4051
a(I2
I3
I2
I3
g187
tp4052
a(I2
I3
I3
I2
g183
tp4053
a(I3
I2
I1
I2
g183
tp4054
a(I3
I2
I2
I1
g187
tp4055
a(I3
I3
I1
I3
g183
tp4056
a(I3
I3
I3
I1
g187
tp4057
aa(lp4058
(I1
I1
I1
I3
g1096
tp4059
a(I1
I1
I2
I2
g1407
tp4060
a(I1
I1
I3
I1
g1096
tp4061
a(I1
I2
I2
I3
g1111
tp4062
a(I1
I2
I3
I2
g1111
tp4063
a(I1
I3
I3
I3
g1125
tp4064
a(I2
I1
I1
I2
g1118
tp4065
a(I2
I1
I2
I1
g1118
tp4066
a(I2
I2
I1
I3
g1103
tp4067
a(I2
I2
I2
I2
g1726
tp4068
a(I2
I2
I3
I1
g1103
tp4069
a(I2
I3
I2
I3
g1118
tp4070
a(I2
I3
I3
I2
g1118
tp4071
a(I3
I1
I1
I1
g1125
tp4072
a(I3
I2
I1
I2
g1111
tp4073
a(I3
I2
I2
I1
g1111
tp4074
a(I3
I3
I1
I3
g1096
tp4075
a(I3
I3
I2
I2
g1407
tp4076
a(I3
I3
I3
I1
g1096
tp4077
aas((I2
I01
tp4078
(I1
I01
tp4079
(I1
I01
tp4080
(I2
tp4081
tp4082
(lp4083
(lp4084
(I1
I2
I1
I1
g798
tp4085
a(I1
I2
I2
I2
g811
tp4086
a(I2
I1
I1
I1
g791
tp4087
a(I2
I1
I2
I2
g807
tp4088
a(I2
I2
I1
I2
g803
tp4089
a(I2
I2
I2
I3
g811
tp4090
a(I3
I1
I1
I2
g791
tp4091
a(I3
I1
I2
I3
g818
tp4092
aa(lp4093
(I1
I1
I2
I1
g208
tp4094
a(I1
I2
I1
I1
g825
tp4095
a(I1
I2
I2
I2
g803
tp4096
a(I2
I1
I1
I1
g807
tp4097
a(I2
I1
I2
I2
g811
tp4098
a(I2
I2
I1
I2
g791
tp4099
a(I2
I2
I2
I3
g803
tp4100
a(I3
I1
I1
I2
g807
tp4101
a(I3
I1
I2
I3
g838
tp4102
a(I3
I2
I1
I3
g831
tp4103
aas((I2
tp4104
(I1
I01
tp4105
(I1
tp4106
(I2
tp4107
tp4108
(lp4109
(lp4110
(I1
I1
I1
I3
g818
tp4111
a(I1
I1
I2
I2
g811
tp4112
a(I2
I1
I1
I2
g803
tp4113
a(I2
I1
I2
I1
g791
tp4114
a(I2
I2
I1
I3
g791
tp4115
a(I2
I2
I2
I2
g803
tp4116
a(I3
I2
I1
I2
g811
tp4117
a(I3
I2
I2
I1
g818
tp4118
aa(lp4119
(I1
I1
I1
I3
g838
tp4120
a(I1
I1
I2
I2
g803
tp4121
a(I1
I2
I2
I3
g208
tp4122
a(I2
I1
I1
I2
g791
tp4123
a(I2
I1
I2
I1
g807
tp4124
a(I2
I2
I1
I3
g807
tp4125
a(I2
I2
I2
I2
g791
tp4126
a(I3
I1
I1
I1
g208
tp4127
a(I3
I2
I1
I2
g803
tp4128
a(I3
I2
I2
I1
g838
tp4129
aas((I1
tp4130
(I2
tp4131
(I1
tp4132
(I2
I01
tp4133
tp4134
(lp4135
(lp4136
(I1
I2
I1
I1
g791
tp4137
a(I1
I2
I2
I2
g807
tp4138
a(I1
I3
I1
I2
g791
tp4139
a(I1
I3
I2
I3
g818
tp4140
a(I2
I1
I1
I1
g798
tp4141
a(I2
I1
I2
I2
g811
tp4142
a(I2
I2
I1
I2
g803
tp4143
a(I2
I2
I2
I3
g811
tp4144
aa(lp4145
(I1
I1
I2
I1
g208
tp4146
a(I1
I2
I1
I1
g807
tp4147
a(I1
I2
I2
I2
g811
tp4148
a(I1
I3
I1
I2
g807
tp4149
a(I1
I3
I2
I3
g838
tp4150
a(I2
I1
I1
I1
g825
tp4151
a(I2
I1
I2
I2
g803
tp4152
a(I2
I2
I1
I2
g791
tp4153
a(I2
I2
I2
I3
g803
tp4154
a(I2
I3
I1
I3
g831
tp4155
aas((I1
I01
tp4156
(I2
tp4157
(I2
tp4158
(I1
tp4159
tp4160
(lp4161
(lp4162
(I1
I1
I2
I2
g811
tp4163
a(I1
I1
I3
I1
g818
tp4164
a(I1
I2
I1
I2
g791
tp4165
a(I1
I2
I2
I1
g803
tp4166
a(I2
I2
I2
I2
g803
tp4167
a(I2
I2
I3
I1
g791
tp4168
a(I2
I3
I1
I2
g818
tp4169
a(I2
I3
I2
I1
g811
tp4170
aa(lp4171
(I1
I1
I2
I2
g803
tp4172
a(I1
I1
I3
I1
g838
tp4173
a(I1
I2
I1
I2
g807
tp4174
a(I1
I2
I2
I1
g791
tp4175
a(I1
I3
I1
I1
g208
tp4176
a(I2
I1
I3
I2
g208
tp4177
a(I2
I2
I2
I2
g791
tp4178
a(I2
I2
I3
I1
g807
tp4179
a(I2
I3
I1
I2
g838
tp4180
a(I2
I3
I2
I1
g803
tp4181
aas((I1
tp4182
(I1
tp4183
(I2
I01
tp4184
(I2
I01
tp4185
tp4186
(lp4187
(lp4188
(I1
I2
I1
I3
I-1
tp4189
a(I1
I2
I2
I2
I1
tp4190
a(I1
I2
I3
I1
I-1
tp4191
a(I2
I1
I1
I3
I1
tp4192
a(I2
I1
I2
I2
I-1
tp4193
a(I2
I1
I3
I1
I1
tp4194
aa(lp4195
(I1
I1
I1
I2
I-1
tp4196
a(I1
I1
I2
I1
I1
tp4197
a(I1
I2
I1
I3
g255
tp4198
a(I1
I2
I3
I1
g776
tp4199
a(I2
I1
I1
I3
g255
tp4200
a(I2
I1
I3
I1
g776
tp4201
a(I2
I2
I2
I3
I-1
tp4202
a(I2
I2
I3
I2
I1
tp4203
aas((I2
I01
tp4204
(I1
I01
tp4205
(I2
I01
tp4206
(I1
tp4207
tp4208
(lp4209
(lp4210
(I1
I2
I2
I1
g811
tp4211
a(I1
I2
I3
I2
g798
tp4212
a(I2
I1
I2
I1
g807
tp4213
a(I2
I1
I3
I2
g791
tp4214
a(I2
I2
I1
I1
g791
tp4215
a(I2
I2
I2
I2
g807
tp4216
a(I3
I1
I1
I1
g798
tp4217
a(I3
I1
I2
I2
g811
tp4218
aa(lp4219
(I1
I1
I3
I1
g208
tp4220
a(I1
I2
I2
I1
g807
tp4221
a(I1
I2
I3
I2
g838
tp4222
a(I2
I1
I2
I1
g791
tp4223
a(I2
I1
I3
I2
g803
tp4224
a(I2
I2
I1
I1
g803
tp4225
a(I2
I2
I2
I2
g791
tp4226
a(I3
I1
I1
I1
g838
tp4227
a(I3
I1
I2
I2
g807
tp4228
a(I3
I2
I1
I2
g208
tp4229
aas((I2
tp4230
(I1
tp4231
(I2
I01
tp4232
(I1
I01
tp4233
tp4234
(lp4235
(lp4236
(I1
I2
I1
I2
g818
tp4237
a(I1
I2
I2
I1
g811
tp4238
a(I2
I1
I1
I2
g811
tp4239
a(I2
I1
I2
I1
g807
tp4240
a(I2
I2
I2
I2
g807
tp4241
a(I2
I2
I3
I1
g811
tp4242
a(I3
I1
I2
I2
g811
tp4243
a(I3
I1
I3
I1
g818
tp4244
aa(lp4245
(I1
I1
I1
I1
g208
tp4246
a(I1
I2
I1
I2
g838
tp4247
a(I1
I2
I2
I1
g803
tp4248
a(I2
I1
I1
I2
g803
tp4249
a(I2
I1
I2
I1
g811
tp4250
a(I2
I2
I2
I2
g811
tp4251
a(I2
I2
I3
I1
g803
tp4252
a(I3
I1
I2
I2
g803
tp4253
a(I3
I1
I3
I1
g838
tp4254
a(I3
I2
I3
I2
g208
tp4255
aas((I1
I01
tp4256
(I1
tp4257
(I1
I01
tp4258
(I1
I01
tp4259
tp4260
(lp4261
(lp4262
(I1
I1
I1
I2
I-1
tp4263
a(I1
I1
I2
I1
I1
tp4264
a(I2
I2
I1
I2
I-1
tp4265
a(I2
I2
I2
I1
I1
tp4266
aa(lp4267
(I1
I1
I1
I2
g803
tp4268
a(I1
I1
I2
I1
g803
tp4269
a(I1
I2
I2
I2
g798
tp4270
a(I2
I1
I1
I1
g818
tp4271
a(I2
I2
I1
I2
g807
tp4272
a(I2
I2
I2
I1
g807
tp4273
aas((I1
I01
tp4274
(I2
I01
tp4275
(I2
I01
tp4276
(I1
I01
tp4277
tp4278
(lp4279
(lp4280
(I1
I2
I2
I2
g803
tp4281
a(I1
I2
I3
I1
g791
tp4282
a(I1
I3
I1
I2
g818
tp4283
a(I1
I3
I2
I1
g811
tp4284
a(I2
I1
I2
I2
g791
tp4285
a(I2
I1
I3
I1
g798
tp4286
a(I2
I2
I1
I2
g811
tp4287
a(I2
I2
I2
I1
g807
tp4288
aa(lp4289
(I1
I1
I3
I2
g208
tp4290
a(I1
I2
I2
I2
g791
tp4291
a(I1
I2
I3
I1
g807
tp4292
a(I1
I3
I1
I2
g838
tp4293
a(I1
I3
I2
I1
g803
tp4294
a(I2
I1
I2
I2
g807
tp4295
a(I2
I1
I3
I1
g825
tp4296
a(I2
I2
I1
I2
g803
tp4297
a(I2
I2
I2
I1
g811
tp4298
a(I2
I3
I1
I1
g831
tp4299
aassg412
(dp4300
g635
(dp4301
g25
g639
sg27
(((I0
g31
(g48
g252
tp4302
Rp4303
(dp4304
bI0
tp4305
(g4303
I0
g4303
tp4306
(I0
g4303
I0
tp4307
tp4308
((I0
g653
I0
tp4309
(g641
I0
g653
tp4310
(I0
g641
I0
tp4311
tp4312
((I1
I0
I0
tp4313
(I0
I0
I0
tp4314
(I0
I0
I-1
tp4315
tp4316
tp4317
ssg698
(dp4318
g25
g702
sg27
(((g29
g255
g29
tp4319
(g255
g29
g255
tp4320
(g29
g255
g29
tp4321
tp4322
((g29
g31
(g34
g37
g252
tp4323
Rp4324
(dp4325
bg29
tp4326
(g31
(g48
g37
g252
tp4327
Rp4328
(dp4329
bg29
g4324
tp4330
(g29
g4328
g29
tp4331
tp4332
((g567
g29
g29
tp4333
(g29
g29
g29
tp4334
(g29
g29
g570
tp4335
tp4336
tp4337
ssg671
(dp4338
g25
g675
sg27
(((g29
g34
tp4339
(g34
g29
tp4340
tp4341
((g29
g31
(g34
g37
tp4342
Rp4343
(dp4344
btp4345
(g31
(g48
g37
tp4346
Rp4347
(dp4348
bg29
tp4349
tp4350
((g34
g29
tp4351
(g29
g48
tp4352
tp4353
tp4354
ssg725
(dp4355
g25
g729
sg27
(((I0
g48
tp4356
(g48
I0
tp4357
tp4358
((I0
g40
tp4359
(g51
I0
tp4360
tp4361
((g48
I0
tp4362
(I0
g34
tp4363
tp4364
tp4365
sssg494
(I1
tp4366
sg496
(dp4367
((I1
tp4368
(I1
tp4369
(I2
tp4370
tp4371
(lp4372
(I1
I1
I3
g31
(g55
g252
g57
(g60
g32
(I3
I4
tp4373
Rp4374
(dp4375
btp4376
Rp4377
(dp4378
btp4379
Rp4380
(dp4381
btp4382
a(I1
I2
I2
g31
(g86
g4377
tp4383
Rp4384
(dp4385
btp4386
a(I2
I1
I2
g4384
tp4387
a(I2
I2
I1
g4380
tp4388
as((I2
tp4389
(I1
tp4390
(I1
tp4391
tp4392
(lp4393
(I1
I2
I2
g31
(g86
g252
g4377
tp4394
Rp4395
(dp4396
btp4397
a(I2
I1
I2
g31
(g55
g4377
tp4398
Rp4399
(dp4400
btp4401
a(I2
I2
I1
g4399
tp4402
a(I3
I1
I1
g4395
tp4403
as((I1
tp4404
(I2
tp4405
(I1
I01
tp4406
tp4407
(lp4408
(I1
I2
I1
g4384
tp4409
a(I1
I3
I2
g4395
tp4410
a(I2
I1
I1
g4380
tp4411
a(I2
I2
I2
g4399
tp4412
as((I1
tp4413
(I2
I01
tp4414
(I1
I01
tp4415
tp4416
(lp4417
(I1
I1
I2
g4380
tp4418
a(I1
I2
I1
g4384
tp4419
a(I2
I2
I2
g4399
tp4420
a(I2
I3
I1
g4395
tp4421
as((I2
I01
tp4422
(I1
tp4423
(I1
tp4424
tp4425
(lp4426
(I1
I1
I1
g4395
tp4427
a(I2
I1
I2
g4384
tp4428
a(I2
I2
I1
g4384
tp4429
a(I3
I2
I2
g4395
tp4430
as((I2
tp4431
(I1
tp4432
(I1
I01
tp4433
tp4434
(lp4435
(I1
I2
I1
g4395
tp4436
a(I2
I1
I1
g4399
tp4437
a(I2
I2
I2
g4384
tp4438
a(I3
I1
I2
g4380
tp4439
as((I1
I01
tp4440
(I2
I01
tp4441
(I1
tp4442
tp4443
(lp4444
(I1
I2
I1
g4384
tp4445
a(I1
I3
I2
g4395
tp4446
a(I2
I1
I1
g4380
tp4447
a(I2
I2
I2
g4399
tp4448
as((I1
tp4449
(I1
I01
tp4450
(I2
tp4451
tp4452
(lp4453
(I1
I1
I2
g4384
tp4454
a(I1
I2
I3
g4395
tp4455
a(I2
I1
I1
g4380
tp4456
a(I2
I2
I2
g4399
tp4457
as((I1
I01
tp4458
(I2
I01
tp4459
(I1
I01
tp4460
tp4461
(lp4462
(I1
I2
I2
g4384
tp4463
a(I1
I3
I1
g4380
tp4464
a(I2
I1
I2
g4380
tp4465
a(I2
I2
I1
g4384
tp4466
as((I2
I01
tp4467
(I2
I01
tp4468
(I2
tp4469
tp4470
(lp4471
(I1
I2
I1
g507
tp4472
a(I1
I3
I2
g507
tp4473
a(I2
I1
I1
g511
tp4474
a(I2
I3
I3
g507
tp4475
a(I3
I1
I2
g511
tp4476
a(I3
I2
I3
g511
tp4477
as((I2
tp4478
(I1
I01
tp4479
(I1
I01
tp4480
tp4481
(lp4482
(I1
I1
I1
g4395
tp4483
a(I2
I1
I2
g4384
tp4484
a(I2
I2
I1
g4384
tp4485
a(I3
I2
I2
g4395
tp4486
as((I2
I01
tp4487
(I2
tp4488
(I2
tp4489
tp4490
(lp4491
(I1
I1
I2
g511
tp4492
a(I1
I2
I1
g507
tp4493
a(I2
I1
I3
g511
tp4494
a(I2
I3
I1
g507
tp4495
a(I3
I2
I3
g511
tp4496
a(I3
I3
I2
g507
tp4497
as((I1
I01
tp4498
(I2
tp4499
(I1
tp4500
tp4501
(lp4502
(I1
I1
I2
g4380
tp4503
a(I1
I2
I1
g4384
tp4504
a(I2
I2
I2
g4399
tp4505
a(I2
I3
I1
g4395
tp4506
as((I2
I01
tp4507
(I1
I01
tp4508
(I1
I01
tp4509
tp4510
(lp4511
(I1
I2
I2
g4395
tp4512
a(I2
I1
I2
g4399
tp4513
a(I2
I2
I1
g4399
tp4514
a(I3
I1
I1
g4395
tp4515
as((I2
tp4516
(I2
I01
tp4517
(I2
tp4518
tp4519
(lp4520
(I1
I1
I2
g507
tp4521
a(I1
I2
I3
g507
tp4522
a(I2
I1
I1
g511
tp4523
a(I2
I3
I3
g507
tp4524
a(I3
I2
I1
g511
tp4525
a(I3
I3
I2
g511
tp4526
as((I2
I01
tp4527
(I2
I01
tp4528
(I2
I01
tp4529
tp4530
(lp4531
(I1
I2
I3
g507
tp4532
a(I1
I3
I2
g511
tp4533
a(I2
I1
I3
g511
tp4534
a(I2
I3
I1
g507
tp4535
a(I3
I1
I2
g507
tp4536
a(I3
I2
I1
g511
tp4537
as((I2
tp4538
(I2
I01
tp4539
(I2
I01
tp4540
tp4541
(lp4542
(I1
I1
I2
g511
tp4543
a(I1
I2
I1
g507
tp4544
a(I2
I1
I3
g511
tp4545
a(I2
I3
I1
g507
tp4546
a(I3
I2
I3
g511
tp4547
a(I3
I3
I2
g507
tp4548
as((I2
tp4549
(I2
tp4550
(I2
I01
tp4551
tp4552
(lp4553
(I1
I2
I1
g507
tp4554
a(I1
I3
I2
g507
tp4555
a(I2
I1
I1
g511
tp4556
a(I2
I3
I3
g507
tp4557
a(I3
I1
I2
g511
tp4558
a(I3
I2
I3
g511
tp4559
as((I1
I01
tp4560
(I1
tp4561
(I2
tp4562
tp4563
(lp4564
(I1
I1
I2
g4399
tp4565
a(I1
I2
I1
g4395
tp4566
a(I2
I1
I3
g4380
tp4567
a(I2
I2
I2
g4384
tp4568
as((I1
I01
tp4569
(I1
I01
tp4570
(I2
tp4571
tp4572
(lp4573
(I1
I1
I1
g4395
tp4574
a(I1
I2
I2
g4384
tp4575
a(I2
I1
I2
g4384
tp4576
a(I2
I2
I3
g4395
tp4577
as((I1
I01
tp4578
(I1
tp4579
(I2
I01
tp4580
tp4581
(lp4582
(I1
I1
I2
g4384
tp4583
a(I1
I2
I3
g4395
tp4584
a(I2
I1
I1
g4380
tp4585
a(I2
I2
I2
g4399
tp4586
as((I2
tp4587
(I2
tp4588
(I2
tp4589
tp4590
(lp4591
(I1
I2
I3
g507
tp4592
a(I1
I3
I2
g511
tp4593
a(I2
I1
I3
g511
tp4594
a(I2
I3
I1
g507
tp4595
a(I3
I1
I2
g507
tp4596
a(I3
I2
I1
g511
tp4597
as((I1
tp4598
(I2
tp4599
(I1
tp4600
tp4601
(lp4602
(I1
I2
I2
g4384
tp4603
a(I1
I3
I1
g4380
tp4604
a(I2
I1
I2
g4380
tp4605
a(I2
I2
I1
g4384
tp4606
as((I2
tp4607
(I1
I01
tp4608
(I1
tp4609
tp4610
(lp4611
(I1
I1
I2
g4395
tp4612
a(I2
I1
I1
g4399
tp4613
a(I2
I2
I2
g4384
tp4614
a(I3
I2
I1
g4380
tp4615
as((I2
I01
tp4616
(I1
I01
tp4617
(I1
tp4618
tp4619
(lp4620
(I1
I2
I1
g4395
tp4621
a(I2
I1
I1
g4399
tp4622
a(I2
I2
I2
g4384
tp4623
a(I3
I1
I2
g4380
tp4624
as((I2
I01
tp4625
(I1
tp4626
(I1
I01
tp4627
tp4628
(lp4629
(I1
I1
I2
g4395
tp4630
a(I2
I1
I1
g4399
tp4631
a(I2
I2
I2
g4384
tp4632
a(I3
I2
I1
g4380
tp4633
as((I1
tp4634
(I1
tp4635
(I2
I01
tp4636
tp4637
(lp4638
(I1
I1
I1
g4395
tp4639
a(I1
I2
I2
g4384
tp4640
a(I2
I1
I2
g4384
tp4641
a(I2
I2
I3
g4395
tp4642
as((I1
tp4643
(I1
I01
tp4644
(I2
I01
tp4645
tp4646
(lp4647
(I1
I1
I2
g4399
tp4648
a(I1
I2
I1
g4395
tp4649
a(I2
I1
I3
g4380
tp4650
a(I2
I2
I2
g4384
tp4651
as((I1
I01
tp4652
(I1
I01
tp4653
(I2
I01
tp4654
tp4655
(lp4656
(I1
I1
I3
g4380
tp4657
a(I1
I2
I2
g4384
tp4658
a(I2
I1
I2
g4384
tp4659
a(I2
I2
I1
g4380
tp4660
as((I1
I01
tp4661
(I2
tp4662
(I1
I01
tp4663
tp4664
(lp4665
(I1
I1
I1
g4395
tp4666
a(I1
I2
I2
g4384
tp4667
a(I2
I2
I1
g4384
tp4668
a(I2
I3
I2
g4395
tp4669
as((I2
I01
tp4670
(I2
tp4671
(I2
I01
tp4672
tp4673
(lp4674
(I1
I1
I2
g507
tp4675
a(I1
I2
I3
g507
tp4676
a(I2
I1
I1
g511
tp4677
a(I2
I3
I3
g507
tp4678
a(I3
I2
I1
g511
tp4679
a(I3
I3
I2
g511
tp4680
as((I1
tp4681
(I2
I01
tp4682
(I1
tp4683
tp4684
(lp4685
(I1
I1
I1
g4395
tp4686
a(I1
I2
I2
g4384
tp4687
a(I2
I2
I1
g4384
tp4688
a(I2
I3
I2
g4395
tp4689
assg529
(dp4690
g635
(dp4691
sg671
(dp4692
sg698
(dp4693
sg725
(dp4694
ssg533
(dp4695
(I2
tp4696
I2
s(I1
I01
tp4697
g4374
s(I2
I01
tp4698
I2
s(I1
tp4699
g4374
ssg540
(dp4700
(I2
tp4701
I3
s(I0
tp4702
I0
s(I1
I01
tp4703
I2
s(I2
I01
tp4704
I3
s(I1
tp4705
I2
ssg545
g546
(g547
(I0
tp4706
g549
tp4707
Rp4708
(I1
(I3
I3
I3
tp4709
g556
I00
(lp4710
g29
ag29
ag29
ag29
ag29
ag567
ag29
ag570
ag29
ag29
ag29
ag570
ag29
ag29
ag29
ag567
ag29
ag29
ag29
ag567
ag29
ag570
ag29
ag29
ag29
ag29
ag29
atp4711
bsg573
(I2
tp4712
sg575
(dp4713
I1
(I0
tp4714
sI2
(I1
tp4715
sI3
(I2
tp4716
sI-3
(I2
I01
tp4717
sI-2
(I1
I01
tp4718
sssS'date'
p4719
S'August 22 2013'
p4720
s.