(dp0
S'SU3'
p1
(dp2
S'Bilinear'
p3
(dp4
((I1
I0
tp5
(I0
I1
tp6
tp7
(lp8
(I1
I1
I1
tp9
a(I2
I2
I1
tp10
a(I3
I3
I1
tp11
as((I0
I1
tp12
(I1
I0
tp13
tp14
(lp15
(I1
I1
I1
tp16
a(I2
I2
I1
tp17
a(I3
I3
I1
tp18
assS'HBmat'
p19
(dp20
(I0
I1
tp21
(dp22
(I0
I1
tp23
(dp24
S'shape'
p25
(I3
I3
tp26
sS'mat'
p27
((csympy.core.numbers
Zero
p28
(tRp29
(dp30
bcsympy.core.mul
Mul
p31
(csympy.core.numbers
Rational
p32
(I-1
I2
tp33
Rp34
(dp35
bcsympy.core.numbers
ImaginaryUnit
p36
(tRp37
(dp38
btp39
Rp40
(dp41
bg29
g40
g29
g29
g29
g29
g29
tp42
(g29
g29
g29
g29
g29
g40
g29
g40
g29
tp43
(g29
g29
g29
g29
g29
g29
g29
g29
g29
tp44
(g29
g29
g29
g29
g29
g29
g29
g29
g29
tp45
(g29
g29
g29
g29
g29
g29
g29
g29
g29
tp46
(g29
g29
g31
(csympy.core.numbers
Half
p47
(tRp48
(dp49
bg37
tp50
Rp51
(dp52
bg29
g29
g29
g51
g29
g29
tp53
(g31
(g32
(I-1
I3
tp54
Rp55
(dp56
bg37
csympy.core.power
Pow
p57
(csympy.core.numbers
Integer
p58
(I3
tp59
Rp60
(dp61
bg48
tp62
Rp63
(dp64
btp65
Rp66
(dp67
bg29
g29
g29
g31
(g32
(I1
I6
tp68
Rp69
(dp70
bg37
g63
tp71
Rp72
(dp73
bg29
g29
g29
g72
tp74
(g29
g29
g29
g29
g40
g29
g29
g29
g51
tp75
tp76
ss(I1
I0
tp77
(dp78
g25
g26
sg27
((g29
g51
g29
g51
g29
g29
g29
g29
g29
tp79
(g29
g29
g29
g29
g29
g51
g29
g51
g29
tp80
(g29
g29
g29
g29
g29
g29
g29
g29
g29
tp81
(g29
g29
g29
g29
g29
g29
g29
g29
g29
tp82
(g29
g29
g29
g29
g29
g29
g29
g29
g29
tp83
(g29
g29
g40
g29
g29
g29
g40
g29
g29
tp84
(g31
(g32
(I1
I3
tp85
Rp86
(dp87
bg37
g63
tp88
Rp89
(dp90
bg29
g29
g29
g31
(g32
(I-1
I6
tp91
Rp92
(dp93
bg37
g63
tp94
Rp95
(dp96
bg29
g29
g29
g95
tp97
(g29
g29
g29
g29
g51
g29
g29
g29
g40
tp98
tp99
ss(I0
I0
tp100
(dp101
g25
g26
sg27
((g29
g29
g29
g29
g29
g29
g29
g29
g29
tp102
(g29
g29
g29
g29
g29
g29
g29
g29
g29
tp103
(g29
g29
g51
g29
g29
g29
g40
g29
g29
tp104
(g29
g40
g29
g51
g29
g29
g29
g29
g29
tp105
(g29
g29
g29
g29
g29
g40
g29
g51
g29
tp106
(g29
g29
g29
g29
g29
g29
g29
g29
g29
tp107
(g29
g29
g29
g29
g29
g29
g29
g29
g29
tp108
(g29
g29
g29
g29
g29
g29
g29
g29
g29
tp109
tp110
ss(I1
I1
tp111
(dp112
g25
g26
sg27
((g29
g29
g29
g29
g29
g29
g29
g29
g29
tp113
(g29
g29
g29
g29
g29
g29
g29
g29
g29
tp114
(g29
g29
g51
g29
g29
g29
g40
g29
g29
tp115
(g29
g40
g29
g51
g29
g29
g29
g29
g29
tp116
(g29
g29
g29
g29
g29
g40
g29
g51
g29
tp117
(g29
g29
g29
g29
g29
g29
g29
g29
g29
tp118
(g29
g29
g29
g29
g29
g29
g29
g29
g29
tp119
(g29
g29
g29
g29
g29
g29
g29
g29
g29
tp120
tp121
sss(I1
I0
tp122
(dp123
(I0
I1
tp124
(dp125
g25
(I3
I3
tp126
sg27
((g29
g51
g29
g51
g29
g29
g29
g29
g29
tp127
(g29
g29
g29
g29
g29
g51
g29
g51
g29
tp128
(g29
g29
g29
g29
g29
g29
g29
g29
g29
tp129
(g29
g29
g29
g29
g29
g29
g29
g29
g29
tp130
(g29
g29
g29
g29
g29
g29
g29
g29
g29
tp131
(g29
g29
g40
g29
g29
g29
g40
g29
g29
tp132
(g89
g29
g29
g29
g95
g29
g29
g29
g95
tp133
(g29
g29
g29
g29
g51
g29
g29
g29
g40
tp134
tp135
ss(I1
I0
tp136
(dp137
g25
g126
sg27
((g29
g40
g29
g40
g29
g29
g29
g29
g29
tp138
(g29
g29
g29
g29
g29
g40
g29
g40
g29
tp139
(g29
g29
g29
g29
g29
g29
g29
g29
g29
tp140
(g29
g29
g29
g29
g29
g29
g29
g29
g29
tp141
(g29
g29
g29
g29
g29
g29
g29
g29
g29
tp142
(g29
g29
g51
g29
g29
g29
g51
g29
g29
tp143
(g66
g29
g29
g29
g72
g29
g29
g29
g72
tp144
(g29
g29
g29
g29
g40
g29
g29
g29
g51
tp145
tp146
ss(I0
I0
tp147
(dp148
g25
g126
sg27
((g29
g29
g29
g29
g29
g29
g29
g29
g29
tp149
(g29
g29
g29
g29
g29
g29
g29
g29
g29
tp150
(g29
g29
g51
g29
g29
g29
g40
g29
g29
tp151
(g29
g40
g29
g51
g29
g29
g29
g29
g29
tp152
(g29
g29
g29
g29
g29
g40
g29
g51
g29
tp153
(g29
g29
g29
g29
g29
g29
g29
g29
g29
tp154
(g29
g29
g29
g29
g29
g29
g29
g29
g29
tp155
(g29
g29
g29
g29
g29
g29
g29
g29
g29
tp156
tp157
ss(I1
I1
tp158
(dp159
g25
g126
sg27
((g29
g29
g29
g29
g29
g29
g29
g29
g29
tp160
(g29
g29
g29
g29
g29
g29
g29
g29
g29
tp161
(g29
g29
g51
g29
g29
g29
g40
g29
g29
tp162
(g29
g40
g29
g51
g29
g29
g29
g29
g29
tp163
(g29
g29
g29
g29
g29
g40
g29
g51
g29
tp164
(g29
g29
g29
g29
g29
g29
g29
g29
g29
tp165
(g29
g29
g29
g29
g29
g29
g29
g29
g29
tp166
(g29
g29
g29
g29
g29
g29
g29
g29
g29
tp167
tp168
ssssS'Dynkin'
p169
(dp170
(I0
I1
tp171
g48
s(I1
I0
tp172
g48
ssS'Quartic'
p173
(dp174
((I0
I1
tp175
(I0
I1
tp176
(I1
I0
tp177
(I1
I0
tp178
tp179
(lp180
(lp181
(I1
I2
I1
I2
g31
(g34
g63
tp182
Rp183
(dp184
btp185
a(I1
I2
I2
I1
g31
(g48
g63
tp186
Rp187
(dp188
btp189
a(I1
I3
I1
I3
g183
tp190
a(I1
I3
I3
I1
g187
tp191
a(I2
I1
I1
I2
g187
tp192
a(I2
I1
I2
I1
g183
tp193
a(I2
I3
I2
I3
g183
tp194
a(I2
I3
I3
I2
g187
tp195
a(I3
I1
I1
I3
g187
tp196
a(I3
I1
I3
I1
g183
tp197
a(I3
I2
I2
I3
g187
tp198
a(I3
I2
I3
I2
g183
tp199
aa(lp200
(I1
I1
I1
I1
g31
(g48
g57
(g58
(I6
tp201
Rp202
(dp203
bg48
tp204
Rp205
(dp206
btp207
Rp208
(dp209
btp210
a(I1
I2
I1
I2
g31
(g32
(I1
I4
tp211
Rp212
(dp213
bg205
tp214
Rp215
(dp216
btp217
a(I1
I2
I2
I1
g215
tp218
a(I1
I3
I1
I3
g215
tp219
a(I1
I3
I3
I1
g215
tp220
a(I2
I1
I1
I2
g215
tp221
a(I2
I1
I2
I1
g215
tp222
a(I2
I2
I2
I2
g208
tp223
a(I2
I3
I2
I3
g215
tp224
a(I2
I3
I3
I2
g215
tp225
a(I3
I1
I1
I3
g215
tp226
a(I3
I1
I3
I1
g215
tp227
a(I3
I2
I2
I3
g215
tp228
a(I3
I2
I3
I2
g215
tp229
a(I3
I3
I3
I3
g208
tp230
aas((I1
I0
tp231
(I0
I1
tp232
(I0
I1
tp233
(I1
I0
tp234
tp235
(lp236
(lp237
(I1
I1
I1
I1
I1
tp238
a(I1
I1
I2
I2
I1
tp239
a(I1
I1
I3
I3
I1
tp240
a(I2
I2
I1
I1
I1
tp241
a(I2
I2
I2
I2
I1
tp242
a(I2
I2
I3
I3
I1
tp243
a(I3
I3
I1
I1
I1
tp244
a(I3
I3
I2
I2
I1
tp245
a(I3
I3
I3
I3
I1
tp246
aa(lp247
(I1
I1
I1
I1
g31
(g34
g57
(g58
(I2
tp248
Rp249
(dp250
bg48
tp251
Rp252
(dp253
btp254
Rp255
(dp256
btp257
a(I1
I1
I2
I2
g31
(g212
g252
tp258
Rp259
(dp260
btp261
a(I1
I1
I3
I3
g259
tp262
a(I1
I2
I1
I2
g31
(g32
(I-3
I4
tp263
Rp264
(dp265
bg252
tp266
Rp267
(dp268
btp269
a(I1
I3
I1
I3
g267
tp270
a(I2
I1
I2
I1
g267
tp271
a(I2
I2
I1
I1
g259
tp272
a(I2
I2
I2
I2
g255
tp273
a(I2
I2
I3
I3
g259
tp274
a(I2
I3
I2
I3
g267
tp275
a(I3
I1
I3
I1
g267
tp276
a(I3
I2
I3
I2
g267
tp277
a(I3
I3
I1
I1
g259
tp278
a(I3
I3
I2
I2
g259
tp279
a(I3
I3
I3
I3
g255
tp280
aas((I0
I1
tp281
(I1
I0
tp282
(I0
I1
tp283
(I1
I0
tp284
tp285
(lp286
(lp287
(I1
I1
I1
I1
I1
tp288
a(I1
I1
I2
I2
I1
tp289
a(I1
I1
I3
I3
I1
tp290
a(I2
I2
I1
I1
I1
tp291
a(I2
I2
I2
I2
I1
tp292
a(I2
I2
I3
I3
I1
tp293
a(I3
I3
I1
I1
I1
tp294
a(I3
I3
I2
I2
I1
tp295
a(I3
I3
I3
I3
I1
tp296
aa(lp297
(I1
I1
I1
I1
g255
tp298
a(I1
I1
I2
I2
g259
tp299
a(I1
I1
I3
I3
g259
tp300
a(I1
I2
I2
I1
g267
tp301
a(I1
I3
I3
I1
g267
tp302
a(I2
I1
I1
I2
g267
tp303
a(I2
I2
I1
I1
g259
tp304
a(I2
I2
I2
I2
g255
tp305
a(I2
I2
I3
I3
g259
tp306
a(I2
I3
I3
I2
g267
tp307
a(I3
I1
I1
I3
g267
tp308
a(I3
I2
I2
I3
g267
tp309
a(I3
I3
I1
I1
g259
tp310
a(I3
I3
I2
I2
g259
tp311
a(I3
I3
I3
I3
g255
tp312
aas((I1
I0
tp313
(I1
I0
tp314
(I0
I1
tp315
(I0
I1
tp316
tp317
(lp318
(lp319
(I1
I1
I1
I1
g208
tp320
a(I1
I2
I1
I2
g215
tp321
a(I1
I2
I2
I1
g215
tp322
a(I1
I3
I1
I3
g215
tp323
a(I1
I3
I3
I1
g215
tp324
a(I2
I1
I1
I2
g215
tp325
a(I2
I1
I2
I1
g215
tp326
a(I2
I2
I2
I2
g208
tp327
a(I2
I3
I2
I3
g215
tp328
a(I2
I3
I3
I2
g215
tp329
a(I3
I1
I1
I3
g215
tp330
a(I3
I1
I3
I1
g215
tp331
a(I3
I2
I2
I3
g215
tp332
a(I3
I2
I3
I2
g215
tp333
a(I3
I3
I3
I3
g208
tp334
aa(lp335
(I1
I2
I1
I2
g183
tp336
a(I1
I2
I2
I1
g187
tp337
a(I1
I3
I1
I3
g183
tp338
a(I1
I3
I3
I1
g187
tp339
a(I2
I1
I1
I2
g187
tp340
a(I2
I1
I2
I1
g183
tp341
a(I2
I3
I2
I3
g183
tp342
a(I2
I3
I3
I2
g187
tp343
a(I3
I1
I1
I3
g187
tp344
a(I3
I1
I3
I1
g183
tp345
a(I3
I2
I2
I3
g187
tp346
a(I3
I2
I3
I2
g183
tp347
aas((I0
I1
tp348
(I1
I0
tp349
(I1
I0
tp350
(I0
I1
tp351
tp352
(lp353
(lp354
(I1
I1
I1
I1
I1
tp355
a(I1
I1
I2
I2
I1
tp356
a(I1
I1
I3
I3
I1
tp357
a(I2
I2
I1
I1
I1
tp358
a(I2
I2
I2
I2
I1
tp359
a(I2
I2
I3
I3
I1
tp360
a(I3
I3
I1
I1
I1
tp361
a(I3
I3
I2
I2
I1
tp362
a(I3
I3
I3
I3
I1
tp363
aa(lp364
(I1
I1
I1
I1
g255
tp365
a(I1
I1
I2
I2
g259
tp366
a(I1
I1
I3
I3
g259
tp367
a(I1
I2
I1
I2
g267
tp368
a(I1
I3
I1
I3
g267
tp369
a(I2
I1
I2
I1
g267
tp370
a(I2
I2
I1
I1
g259
tp371
a(I2
I2
I2
I2
g255
tp372
a(I2
I2
I3
I3
g259
tp373
a(I2
I3
I2
I3
g267
tp374
a(I3
I1
I3
I1
g267
tp375
a(I3
I2
I3
I2
g267
tp376
a(I3
I3
I1
I1
g259
tp377
a(I3
I3
I2
I2
g259
tp378
a(I3
I3
I3
I3
g255
tp379
aas((I1
I0
tp380
(I0
I1
tp381
(I1
I0
tp382
(I0
I1
tp383
tp384
(lp385
(lp386
(I1
I1
I1
I1
I1
tp387
a(I1
I1
I2
I2
I1
tp388
a(I1
I1
I3
I3
I1
tp389
a(I2
I2
I1
I1
I1
tp390
a(I2
I2
I2
I2
I1
tp391
a(I2
I2
I3
I3
I1
tp392
a(I3
I3
I1
I1
I1
tp393
a(I3
I3
I2
I2
I1
tp394
a(I3
I3
I3
I3
I1
tp395
aa(lp396
(I1
I1
I1
I1
g255
tp397
a(I1
I1
I2
I2
g259
tp398
a(I1
I1
I3
I3
g259
tp399
a(I1
I2
I2
I1
g267
tp400
a(I1
I3
I3
I1
g267
tp401
a(I2
I1
I1
I2
g267
tp402
a(I2
I2
I1
I1
g259
tp403
a(I2
I2
I2
I2
g255
tp404
a(I2
I2
I3
I3
g259
tp405
a(I2
I3
I3
I2
g267
tp406
a(I3
I1
I1
I3
g267
tp407
a(I3
I2
I2
I3
g267
tp408
a(I3
I3
I1
I1
g259
tp409
a(I3
I3
I2
I2
g259
tp410
a(I3
I3
I3
I3
g255
tp411
aassS'Matrices'
p412
(dp413
g21
(dp414
g25
g26
sg27
(((I0
g34
I0
tp415
(g34
I0
I0
tp416
(I0
I0
I0
tp417
tp418
((I0
I0
I0
tp419
(I0
I0
g34
tp420
(I0
g34
I0
tp421
tp422
((I0
I0
g51
tp423
(I0
I0
I0
tp424
(g40
I0
I0
tp425
tp426
((I0
g40
I0
tp427
(g51
I0
I0
tp428
(I0
I0
I0
tp429
tp430
((I0
I0
I0
tp431
(I0
I0
g40
tp432
(I0
g51
I0
tp433
tp434
((I0
I0
g48
tp435
(I0
I0
I0
tp436
(g48
I0
I0
tp437
tp438
((g31
(g55
g63
tp439
Rp440
(dp441
bI0
I0
tp442
(I0
g31
(g69
g63
tp443
Rp444
(dp445
bI0
tp446
(I0
I0
g444
tp447
tp448
((I0
I0
I0
tp449
(I0
g34
I0
tp450
(I0
I0
g48
tp451
tp452
tp453
ssg122
(dp454
g25
g126
sg27
(((I0
g48
I0
tp455
(g48
I0
I0
tp456
(I0
I0
I0
tp457
tp458
((I0
I0
I0
tp459
(I0
I0
g48
tp460
(I0
g48
I0
tp461
tp462
((I0
I0
g51
tp463
(I0
I0
I0
tp464
(g40
I0
I0
tp465
tp466
((I0
g40
I0
tp467
(g51
I0
I0
tp468
(I0
I0
I0
tp469
tp470
((I0
I0
I0
tp471
(I0
I0
g40
tp472
(I0
g51
I0
tp473
tp474
((I0
I0
g34
tp475
(I0
I0
I0
tp476
(g34
I0
I0
tp477
tp478
((g31
(g86
g63
tp479
Rp480
(dp481
bI0
I0
tp482
(I0
g31
(g92
g63
tp483
Rp484
(dp485
bI0
tp486
(I0
I0
g484
tp487
tp488
((I0
I0
I0
tp489
(I0
g48
I0
tp490
(I0
I0
g34
tp491
tp492
tp493
sssS'Fond'
p494
(I1
I0
tp495
sS'Trilinear'
p496
(dp497
((I1
I0
tp498
(I1
I0
tp499
(I1
I0
tp500
tp501
(lp502
(I1
I2
I3
g31
(g48
g252
tp503
Rp504
(dp505
btp506
a(I1
I3
I2
g255
tp507
a(I2
I1
I3
g255
tp508
a(I2
I3
I1
g504
tp509
a(I3
I1
I2
g504
tp510
a(I3
I2
I1
g255
tp511
as((I0
I1
tp512
(I0
I1
tp513
(I0
I1
tp514
tp515
(lp516
(I1
I2
I3
g504
tp517
a(I1
I3
I2
g255
tp518
a(I2
I1
I3
g255
tp519
a(I2
I3
I1
g504
tp520
a(I3
I1
I2
g504
tp521
a(I3
I2
I1
g255
tp522
assS'HBAmat'
p523
(dp524
g21
(dp525
sg122
(dp526
ssS'Casimir'
p527
(dp528
(I0
I1
tp529
g32
(I4
I3
tp530
Rp531
(dp532
bs(I1
I0
tp533
g531
ssS'DynkinToDim'
p534
(dp535
(I0
I1
tp536
I3
s(I1
I0
tp537
I3
s(I0
I0
tp538
I0
ssS'Struc'
p539
cnumpy.core.multiarray
_reconstruct
p540
(cnumpy
ndarray
p541
(I0
tp542
S'b'
p543
tp544
Rp545
(I1
(I8
I8
I8
tp546
cnumpy
dtype
p547
(S'O8'
p548
I0
I1
tp549
Rp550
(I3
S'|'
p551
NNNI-1
I-1
I63
tp552
bI00
(lp553
g29
ag29
ag29
ag29
ag29
ag29
ag29
ag29
ag29
ag29
ag48
ag29
ag29
ag29
ag29
ag29
ag29
ag34
ag29
ag29
ag29
ag29
ag29
ag29
ag29
ag29
ag29
ag29
ag29
ag29
ag31
(g34
g63
tp554
Rp555
(dp556
bag48
ag29
ag29
ag29
ag29
ag29
ag34
ag29
ag29
ag29
ag29
ag29
ag29
ag48
ag29
ag29
ag29
ag29
ag29
ag29
ag31
(g48
g63
tp557
Rp558
(dp559
bag29
ag29
ag29
ag29
ag29
ag29
ag29
ag34
ag29
ag29
ag29
ag29
ag29
ag29
ag34
ag29
ag29
ag29
ag29
ag29
ag29
ag29
ag29
ag29
ag29
ag29
ag29
ag29
ag48
ag29
ag29
ag29
ag29
ag29
ag29
ag29
ag29
ag29
ag29
ag29
ag29
ag48
ag29
ag29
ag29
ag29
ag29
ag29
ag29
ag29
ag29
acsympy.core.numbers
NegativeOne
p560
(tRp561
(dp562
bag29
ag29
ag29
ag34
ag29
ag29
ag29
ag29
ag29
ag29
ag29
ag29
ag29
ag29
ag29
ag29
ag29
ag29
ag29
ag29
acsympy.core.numbers
One
p563
(tRp564
(dp565
bag29
ag29
ag29
ag29
ag48
ag29
ag29
ag29
ag29
ag29
ag29
ag34
ag29
ag29
ag29
ag29
ag29
ag29
ag29
ag29
ag29
ag29
ag29
ag29
ag29
ag29
ag29
ag29
ag29
ag29
ag29
ag34
ag29
ag29
ag29
ag29
ag29
ag29
ag48
ag29
ag29
ag29
ag29
ag29
ag29
ag29
ag29
ag29
ag29
ag558
ag48
ag29
ag29
ag29
ag29
ag29
ag555
ag29
ag29
ag29
ag29
ag29
ag29
ag29
ag34
ag29
ag29
ag29
ag29
ag29
ag29
ag29
ag29
ag558
ag34
ag29
ag29
ag29
ag29
ag29
ag34
ag29
ag29
ag29
ag29
ag29
ag29
ag48
ag29
ag29
ag29
ag29
ag29
ag29
ag29
ag29
ag29
ag29
ag29
ag29
ag29
ag34
ag29
ag29
ag29
ag29
ag29
ag29
ag48
ag29
ag29
ag29
ag29
ag29
ag29
ag555
ag29
ag29
ag29
ag29
ag29
ag29
ag29
ag48
ag29
ag29
ag29
ag29
ag29
ag29
ag29
ag29
ag29
ag29
ag29
ag29
ag48
ag29
ag29
ag29
ag29
ag29
ag29
ag29
ag29
ag29
ag564
ag29
ag29
ag29
ag34
ag29
ag29
ag29
ag29
ag29
ag29
ag48
ag29
ag29
ag29
ag29
ag29
ag29
ag29
ag29
ag29
ag29
ag29
ag29
ag29
ag34
ag29
ag29
ag29
ag29
ag29
ag29
ag29
ag29
ag29
ag29
ag29
ag29
ag29
ag29
ag29
ag29
ag561
ag29
ag29
ag29
ag29
ag29
ag29
ag29
ag29
ag29
ag29
ag34
ag29
ag29
ag29
ag29
ag29
ag29
ag48
ag29
ag29
ag29
ag29
ag29
ag29
ag29
ag29
ag29
ag29
ag555
ag34
ag29
ag34
ag29
ag29
ag29
ag29
ag29
ag29
ag48
ag29
ag29
ag29
ag29
ag29
ag29
ag29
ag29
ag29
ag29
ag29
ag29
ag29
ag29
ag29
ag29
ag29
ag558
ag29
ag29
ag29
ag29
ag29
ag29
ag29
ag48
ag29
ag29
ag29
ag29
ag29
ag29
ag29
ag29
ag555
ag29
ag29
ag29
ag29
ag29
ag29
ag29
ag29
ag29
ag29
ag29
ag29
ag29
ag29
ag29
ag29
ag29
ag558
ag29
ag29
ag558
ag29
ag29
ag29
ag29
ag29
ag29
ag29
ag29
ag29
ag29
ag29
ag29
ag29
ag29
ag29
ag29
ag29
ag555
ag29
ag29
ag29
ag29
ag29
ag29
ag29
ag29
ag29
ag29
ag29
ag29
ag29
ag29
ag29
ag29
ag29
ag29
ag29
ag29
ag29
ag29
ag29
ag29
ag48
ag29
ag29
ag29
ag29
ag29
ag29
ag29
ag29
ag561
ag29
ag29
ag29
ag29
ag29
ag29
ag29
ag29
ag48
ag29
ag29
ag34
ag29
ag29
ag29
ag29
ag29
ag29
ag29
ag29
ag564
ag29
ag29
ag29
ag29
ag29
ag29
ag29
ag29
ag34
ag29
ag29
ag29
ag29
ag29
ag29
ag29
ag29
ag29
ag29
ag29
ag29
ag29
ag29
ag29
ag29
ag29
ag29
ag29
ag29
ag29
atp566
bsS'Adj'
p567
(I1
I1
tp568
sS'DimToDynkin'
p569
(dp570
I1
(I0
I0
tp571
sI3
g537
sI-3
(I0
I1
tp572
sssS'SU2'
p573
(dp574
g3
(dp575
((I1
I01
tp576
(I1
tp577
tp578
(lp579
(I1
I1
I1
tp580
a(I2
I2
I1
tp581
as((I2
tp582
(I2
I01
tp583
tp584
(lp585
(I1
I1
I1
tp586
a(I2
I2
I1
tp587
a(I3
I3
I1
tp588
as((I1
I01
tp589
(I1
I01
tp590
tp591
(lp592
(I1
I2
I-1
tp593
a(I2
I1
I1
tp594
as((I1
tp595
(I1
I01
tp596
tp597
(lp598
(I1
I1
I1
tp599
a(I2
I2
I1
tp600
as((I1
tp601
(I1
tp602
tp603
(lp604
(I1
I2
I-1
tp605
a(I2
I1
I1
tp606
as((I2
I01
tp607
(I2
tp608
tp609
(lp610
(I1
I1
I1
tp611
a(I2
I2
I1
tp612
a(I3
I3
I1
tp613
as((I2
I01
tp614
(I2
I01
tp615
tp616
(lp617
(I1
I3
I1
tp618
a(I2
I2
I-1
tp619
a(I3
I1
I1
tp620
as((I2
tp621
(I2
tp622
tp623
(lp624
(I1
I3
I1
tp625
a(I2
I2
I-1
tp626
a(I3
I1
I1
tp627
assg19
(dp628
(I2
tp629
(dp630
(I0
I1
tp631
(dp632
g25
(I3
I3
tp633
sg27
((g29
g31
(g48
g37
g252
tp634
Rp635
(dp636
bg29
g635
g29
g635
g29
g635
g29
tp637
(g29
g29
g29
g29
g29
g29
g29
g29
g29
tp638
(g37
g29
g29
g29
g29
g29
g29
g29
g31
(g561
g37
tp639
Rp640
(dp641
btp642
tp643
ss(I1
I0
tp644
(dp645
g25
g633
sg27
((g29
g31
(g34
g37
g252
tp646
Rp647
(dp648
bg29
g647
g29
g647
g29
g647
g29
tp649
(g29
g29
g29
g29
g29
g29
g29
g29
g29
tp650
(g640
g29
g29
g29
g29
g29
g29
g29
g37
tp651
tp652
ss(I0
I0
tp653
(dp654
g25
g633
sg27
((g29
g29
g29
g29
g29
g29
g29
g29
g29
tp655
(g29
g647
g29
g635
g29
g647
g29
g635
g29
tp656
(g29
g29
g29
g29
g29
g29
g29
g29
g29
tp657
tp658
ss(I1
I1
tp659
(dp660
g25
g633
sg27
((g29
g29
g29
g29
g29
g29
g29
g29
g29
tp661
(g29
g647
g29
g635
g29
g647
g29
g635
g29
tp662
(g29
g29
g29
g29
g29
g29
g29
g29
g29
tp663
tp664
sss(I1
I01
tp665
(dp666
(I0
I1
tp667
(dp668
g25
(I2
I2
tp669
sg27
((g29
g40
g40
g29
tp670
(g29
g29
g29
g29
tp671
(g40
g29
g29
g51
tp672
tp673
ss(I1
I0
tp674
(dp675
g25
g669
sg27
((g29
g51
g51
g29
tp676
(g29
g29
g29
g29
tp677
(g51
g29
g29
g40
tp678
tp679
ss(I0
I0
tp680
(dp681
g25
g669
sg27
((g29
g29
g29
g29
tp682
(g29
g40
g51
g29
tp683
(g29
g29
g29
g29
tp684
tp685
ss(I1
I1
tp686
(dp687
g25
g669
sg27
((g29
g29
g29
g29
tp688
(g29
g40
g51
g29
tp689
(g29
g29
g29
g29
tp690
tp691
sss(I2
I01
tp692
(dp693
(I0
I1
tp694
(dp695
g25
(I3
I3
tp696
sg27
((g29
g647
g29
g647
g29
g647
g29
g647
g29
tp697
(g29
g29
g29
g29
g29
g29
g29
g29
g29
tp698
(g640
g29
g29
g29
g29
g29
g29
g29
g37
tp699
tp700
ss(I1
I0
tp701
(dp702
g25
g696
sg27
((g29
g635
g29
g635
g29
g635
g29
g635
g29
tp703
(g29
g29
g29
g29
g29
g29
g29
g29
g29
tp704
(g37
g29
g29
g29
g29
g29
g29
g29
g640
tp705
tp706
ss(I0
I0
tp707
(dp708
g25
g696
sg27
((g29
g29
g29
g29
g29
g29
g29
g29
g29
tp709
(g29
g647
g29
g635
g29
g647
g29
g635
g29
tp710
(g29
g29
g29
g29
g29
g29
g29
g29
g29
tp711
tp712
ss(I1
I1
tp713
(dp714
g25
g696
sg27
((g29
g29
g29
g29
g29
g29
g29
g29
g29
tp715
(g29
g647
g29
g635
g29
g647
g29
g635
g29
tp716
(g29
g29
g29
g29
g29
g29
g29
g29
g29
tp717
tp718
sss(I1
tp719
(dp720
(I0
I1
tp721
(dp722
g25
(I2
I2
tp723
sg27
((g29
g51
g51
g29
tp724
(g29
g29
g29
g29
tp725
(g51
g29
g29
g40
tp726
tp727
ss(I1
I0
tp728
(dp729
g25
g723
sg27
((g29
g40
g40
g29
tp730
(g29
g29
g29
g29
tp731
(g40
g29
g29
g51
tp732
tp733
ss(I0
I0
tp734
(dp735
g25
g723
sg27
((g29
g29
g29
g29
tp736
(g29
g40
g51
g29
tp737
(g29
g29
g29
g29
tp738
tp739
ss(I1
I1
tp740
(dp741
g25
g723
sg27
((g29
g29
g29
g29
tp742
(g29
g40
g51
g29
tp743
(g29
g29
g29
g29
tp744
tp745
ssssg169
(dp746
(I2
tp747
I2
s(I1
I01
tp748
g48
s(I2
I01
tp749
I2
s(I1
tp750
g48
ssg173
(dp751
((I1
tp752
(I1
tp753
(I2
I01
tp754
(I2
tp755
tp756
(lp757
(lp758
(I1
I2
I1
I1
I-1
tp759
a(I1
I2
I2
I2
I-1
tp760
a(I1
I2
I3
I3
I-1
tp761
a(I2
I1
I1
I1
I1
tp762
a(I2
I1
I2
I2
I1
tp763
a(I2
I1
I3
I3
I1
tp764
aa(lp765
(I1
I1
I1
I2
I1
tp766
a(I1
I1
I2
I3
I1
tp767
a(I1
I2
I1
I1
g255
tp768
a(I1
I2
I3
I3
g504
tp769
a(I2
I1
I1
I1
g255
tp770
a(I2
I1
I3
I3
g504
tp771
a(I2
I2
I2
I1
I-1
tp772
a(I2
I2
I3
I2
I-1
tp773
aas((I1
tp774
(I2
I01
tp775
(I1
tp776
(I2
tp777
tp778
(lp779
(lp780
(I1
I1
I1
I2
g31
(g55
g205
tp781
Rp782
(dp783
btp784
a(I1
I1
I2
I1
g31
(g32
(I2
I3
tp785
Rp786
(dp787
bg63
tp788
Rp789
(dp790
btp791
a(I1
I2
I1
I3
g782
tp792
a(I1
I2
I2
I2
g31
(g86
g63
tp793
Rp794
(dp795
btp796
a(I2
I2
I1
I2
g31
(g55
g63
tp797
Rp798
(dp799
btp800
a(I2
I2
I2
I1
g31
(g86
g205
tp801
Rp802
(dp803
btp804
a(I2
I3
I1
I3
g31
(g32
(I-2
I3
tp805
Rp806
(dp807
bg63
tp808
Rp809
(dp810
btp811
a(I2
I3
I2
I2
g802
tp812
aa(lp813
(I1
I1
I1
I2
g798
tp814
a(I1
I1
I2
I1
g31
(g92
g205
tp815
Rp816
(dp817
btp818
a(I1
I2
I1
I3
g798
tp819
a(I1
I2
I2
I2
g782
tp820
a(I1
I3
I2
I3
g31
(g34
g205
tp821
Rp822
(dp823
btp824
a(I2
I1
I1
I1
g208
tp825
a(I2
I2
I1
I2
g802
tp826
a(I2
I2
I2
I1
g794
tp827
a(I2
I3
I1
I3
g31
(g69
g205
tp828
Rp829
(dp830
btp831
a(I2
I3
I2
I2
g794
tp832
aas((I1
tp833
(I1
I01
tp834
(I2
tp835
(I2
I01
tp836
tp837
(lp838
(lp839
(I1
I1
I1
I1
I1
tp840
a(I1
I1
I2
I2
I1
tp841
a(I1
I1
I3
I3
I1
tp842
a(I2
I2
I1
I1
I1
tp843
a(I2
I2
I2
I2
I1
tp844
a(I2
I2
I3
I3
I1
tp845
aa(lp846
(I1
I1
I1
I1
g255
tp847
a(I1
I1
I3
I3
g504
tp848
a(I1
I2
I2
I1
I-1
tp849
a(I1
I2
I3
I2
I-1
tp850
a(I2
I1
I1
I2
I-1
tp851
a(I2
I1
I2
I3
I-1
tp852
a(I2
I2
I1
I1
g504
tp853
a(I2
I2
I3
I3
g255
tp854
aas((I2
I01
tp855
(I1
tp856
(I2
I01
tp857
(I1
I01
tp858
tp859
(lp860
(lp861
(I1
I1
I2
I2
g802
tp862
a(I1
I1
I3
I1
g809
tp863
a(I2
I1
I1
I2
g782
tp864
a(I2
I1
I2
I1
g794
tp865
a(I2
I2
I2
I2
g794
tp866
a(I2
I2
I3
I1
g782
tp867
a(I3
I2
I1
I2
g809
tp868
a(I3
I2
I2
I1
g802
tp869
aa(lp870
(I1
I1
I2
I2
g794
tp871
a(I1
I1
I3
I1
g829
tp872
a(I1
I2
I3
I2
g208
tp873
a(I2
I1
I1
I2
g798
tp874
a(I2
I1
I2
I1
g782
tp875
a(I2
I2
I2
I2
g782
tp876
a(I2
I2
I3
I1
g798
tp877
a(I3
I1
I1
I1
g208
tp878
a(I3
I2
I1
I2
g829
tp879
a(I3
I2
I2
I1
g794
tp880
aas((I2
tp881
(I1
I01
tp882
(I1
tp883
(I2
I01
tp884
tp885
(lp886
(lp887
(I1
I1
I1
I1
g809
tp888
a(I1
I1
I2
I2
g782
tp889
a(I2
I1
I1
I2
g798
tp890
a(I2
I1
I2
I3
g782
tp891
a(I2
I2
I1
I1
g782
tp892
a(I2
I2
I2
I2
g798
tp893
a(I3
I2
I1
I2
g782
tp894
a(I3
I2
I2
I3
g809
tp895
aa(lp896
(I1
I1
I1
I1
g829
tp897
a(I1
I1
I2
I2
g798
tp898
a(I1
I2
I2
I1
g208
tp899
a(I2
I1
I1
I2
g802
tp900
a(I2
I1
I2
I3
g798
tp901
a(I2
I2
I1
I1
g798
tp902
a(I2
I2
I2
I2
g802
tp903
a(I3
I1
I1
I3
g208
tp904
a(I3
I2
I1
I2
g798
tp905
a(I3
I2
I2
I3
g829
tp906
aas((I2
tp907
(I1
I01
tp908
(I2
tp909
(I1
tp910
tp911
(lp912
(lp913
(I1
I1
I2
I2
g782
tp914
a(I1
I1
I3
I1
g789
tp915
a(I2
I1
I1
I2
g802
tp916
a(I2
I1
I2
I1
g798
tp917
a(I2
I2
I2
I2
g798
tp918
a(I2
I2
I3
I1
g802
tp919
a(I3
I2
I1
I2
g789
tp920
a(I3
I2
I2
I1
g782
tp921
aa(lp922
(I1
I1
I2
I2
g794
tp923
a(I1
I1
I3
I1
g829
tp924
a(I1
I2
I3
I2
g208
tp925
a(I2
I1
I1
I2
g798
tp926
a(I2
I1
I2
I1
g782
tp927
a(I2
I2
I2
I2
g782
tp928
a(I2
I2
I3
I1
g798
tp929
a(I3
I1
I1
I1
g208
tp930
a(I3
I2
I1
I2
g829
tp931
a(I3
I2
I2
I1
g794
tp932
aas((I1
tp933
(I2
tp934
(I2
I01
tp935
(I1
I01
tp936
tp937
(lp938
(lp939
(I1
I2
I1
I2
g782
tp940
a(I1
I2
I2
I1
g794
tp941
a(I1
I3
I2
I2
g782
tp942
a(I1
I3
I3
I1
g789
tp943
a(I2
I1
I1
I2
g789
tp944
a(I2
I1
I2
I1
g782
tp945
a(I2
I2
I2
I2
g794
tp946
a(I2
I2
I3
I1
g782
tp947
aa(lp948
(I1
I1
I1
I1
g822
tp949
a(I1
I2
I1
I2
g798
tp950
a(I1
I2
I2
I1
g782
tp951
a(I1
I3
I2
I2
g798
tp952
a(I1
I3
I3
I1
g816
tp953
a(I2
I1
I1
I2
g816
tp954
a(I2
I1
I2
I1
g798
tp955
a(I2
I2
I2
I2
g782
tp956
a(I2
I2
I3
I1
g798
tp957
a(I2
I3
I3
I2
g822
tp958
aas((I1
tp959
(I1
I01
tp960
(I1
tp961
(I1
tp962
tp963
(lp964
(lp965
(I1
I1
I1
I2
I1
tp966
a(I1
I1
I2
I1
I-1
tp967
a(I2
I2
I1
I2
I1
tp968
a(I2
I2
I2
I1
I-1
tp969
aa(lp970
(I1
I1
I1
I2
g794
tp971
a(I1
I1
I2
I1
g794
tp972
a(I1
I2
I2
I2
g789
tp973
a(I2
I1
I1
I1
g809
tp974
a(I2
I2
I1
I2
g798
tp975
a(I2
I2
I2
I1
g798
tp976
aas((I2
tp977
(I1
tp978
(I1
tp979
(I2
I01
tp980
tp981
(lp982
(lp983
(I1
I2
I1
I1
g809
tp984
a(I1
I2
I2
I2
g782
tp985
a(I2
I1
I1
I1
g802
tp986
a(I2
I1
I2
I2
g794
tp987
a(I2
I2
I1
I2
g798
tp988
a(I2
I2
I2
I3
g782
tp989
a(I3
I1
I1
I2
g802
tp990
a(I3
I1
I2
I3
g789
tp991
aa(lp992
(I1
I1
I2
I1
g822
tp993
a(I1
I2
I1
I1
g829
tp994
a(I1
I2
I2
I2
g798
tp995
a(I2
I1
I1
I1
g794
tp996
a(I2
I1
I2
I2
g782
tp997
a(I2
I2
I1
I2
g802
tp998
a(I2
I2
I2
I3
g798
tp999
a(I3
I1
I1
I2
g794
tp1000
a(I3
I1
I2
I3
g816
tp1001
a(I3
I2
I1
I3
g208
tp1002
aas((I2
I01
tp1003
(I2
I01
tp1004
(I1
tp1005
(I1
tp1006
tp1007
(lp1008
(lp1009
(I1
I3
I1
I2
I1
tp1010
a(I1
I3
I2
I1
I-1
tp1011
a(I2
I2
I1
I2
I-1
tp1012
a(I2
I2
I2
I1
I1
tp1013
a(I3
I1
I1
I2
I1
tp1014
a(I3
I1
I2
I1
I-1
tp1015
aa(lp1016
(I1
I2
I1
I1
I1
tp1017
a(I1
I3
I1
I2
g504
tp1018
a(I1
I3
I2
I1
g504
tp1019
a(I2
I1
I1
I1
I-1
tp1020
a(I2
I3
I2
I2
I1
tp1021
a(I3
I1
I1
I2
g255
tp1022
a(I3
I1
I2
I1
g255
tp1023
a(I3
I2
I2
I2
I-1
tp1024
aas((I1
tp1025
(I1
I01
tp1026
(I2
I01
tp1027
(I2
tp1028
tp1029
(lp1030
(lp1031
(I1
I1
I1
I1
I1
tp1032
a(I1
I1
I2
I2
I1
tp1033
a(I1
I1
I3
I3
I1
tp1034
a(I2
I2
I1
I1
I1
tp1035
a(I2
I2
I2
I2
I1
tp1036
a(I2
I2
I3
I3
I1
tp1037
aa(lp1038
(I1
I1
I1
I1
g255
tp1039
a(I1
I1
I3
I3
g504
tp1040
a(I1
I2
I1
I2
I-1
tp1041
a(I1
I2
I2
I3
I-1
tp1042
a(I2
I1
I2
I1
I-1
tp1043
a(I2
I1
I3
I2
I-1
tp1044
a(I2
I2
I1
I1
g504
tp1045
a(I2
I2
I3
I3
g255
tp1046
aas((I2
I01
tp1047
(I2
tp1048
(I2
I01
tp1049
(I2
tp1050
tp1051
(lp1052
(lp1053
(I1
I1
I1
I1
I1
tp1054
a(I1
I1
I2
I2
I1
tp1055
a(I1
I1
I3
I3
I1
tp1056
a(I2
I2
I1
I1
I1
tp1057
a(I2
I2
I2
I2
I1
tp1058
a(I2
I2
I3
I3
I1
tp1059
a(I3
I3
I1
I1
I1
tp1060
a(I3
I3
I2
I2
I1
tp1061
a(I3
I3
I3
I3
I1
tp1062
aa(lp1063
(I1
I1
I1
I1
g187
tp1064
a(I1
I1
I3
I3
g183
tp1065
a(I1
I2
I2
I1
g187
tp1066
a(I1
I2
I3
I2
g187
tp1067
a(I2
I1
I1
I2
g187
tp1068
a(I2
I1
I2
I3
g187
tp1069
a(I2
I3
I2
I1
g187
tp1070
a(I2
I3
I3
I2
g187
tp1071
a(I3
I2
I1
I2
g187
tp1072
a(I3
I2
I2
I3
g187
tp1073
a(I3
I3
I1
I1
g183
tp1074
a(I3
I3
I3
I3
g187
tp1075
aa(lp1076
(I1
I1
I1
I1
g31
(g32
(I1
I10
tp1077
Rp1078
(dp1079
bg57
(g58
(I5
tp1080
Rp1081
(dp1082
bg48
tp1083
Rp1084
(dp1085
btp1086
Rp1087
(dp1088
btp1089
a(I1
I1
I2
I2
g31
(g32
(I-1
I5
tp1090
Rp1091
(dp1092
bg1084
tp1093
Rp1094
(dp1095
btp1096
a(I1
I1
I3
I3
g1087
tp1097
a(I1
I2
I2
I1
g31
(g32
(I3
I10
tp1098
Rp1099
(dp1100
bg1084
tp1101
Rp1102
(dp1103
btp1104
a(I1
I2
I3
I2
g31
(g32
(I-3
I10
tp1105
Rp1106
(dp1107
bg1084
tp1108
Rp1109
(dp1110
btp1111
a(I1
I3
I3
I1
g31
(g32
(I3
I5
tp1112
Rp1113
(dp1114
bg1084
tp1115
Rp1116
(dp1117
btp1118
a(I2
I1
I1
I2
g1102
tp1119
a(I2
I1
I2
I3
g1109
tp1120
a(I2
I2
I1
I1
g1094
tp1121
a(I2
I2
I2
I2
g31
(g32
(I2
I5
tp1122
Rp1123
(dp1124
bg1084
tp1125
Rp1126
(dp1127
btp1128
a(I2
I2
I3
I3
g1094
tp1129
a(I2
I3
I2
I1
g1109
tp1130
a(I2
I3
I3
I2
g1102
tp1131
a(I3
I1
I1
I3
g1116
tp1132
a(I3
I2
I1
I2
g1109
tp1133
a(I3
I2
I2
I3
g1102
tp1134
a(I3
I3
I1
I1
g1087
tp1135
a(I3
I3
I2
I2
g1094
tp1136
a(I3
I3
I3
I3
g1087
tp1137
aas((I1
tp1138
(I1
tp1139
(I1
tp1140
(I1
I01
tp1141
tp1142
(lp1143
(lp1144
(I1
I2
I1
I1
I-1
tp1145
a(I1
I2
I2
I2
I-1
tp1146
a(I2
I1
I1
I1
I1
tp1147
a(I2
I1
I2
I2
I1
tp1148
aa(lp1149
(I1
I1
I2
I1
g789
tp1150
a(I1
I2
I1
I1
g798
tp1151
a(I1
I2
I2
I2
g794
tp1152
a(I2
I1
I1
I1
g798
tp1153
a(I2
I1
I2
I2
g794
tp1154
a(I2
I2
I1
I2
g809
tp1155
aas((I2
I01
tp1156
(I2
tp1157
(I1
I01
tp1158
(I1
tp1159
tp1160
(lp1161
(lp1162
(I1
I1
I1
I1
I1
tp1163
a(I1
I1
I2
I2
I1
tp1164
a(I2
I2
I1
I1
I1
tp1165
a(I2
I2
I2
I2
I1
tp1166
a(I3
I3
I1
I1
I1
tp1167
a(I3
I3
I2
I2
I1
tp1168
aa(lp1169
(I1
I1
I1
I1
g504
tp1170
a(I1
I1
I2
I2
g255
tp1171
a(I1
I2
I2
I1
I1
tp1172
a(I2
I1
I1
I2
I1
tp1173
a(I2
I3
I2
I1
I1
tp1174
a(I3
I2
I1
I2
I1
tp1175
a(I3
I3
I1
I1
g255
tp1176
a(I3
I3
I2
I2
g504
tp1177
aas((I2
I01
tp1178
(I2
I01
tp1179
(I1
I01
tp1180
(I1
tp1181
tp1182
(lp1183
(lp1184
(I1
I3
I1
I1
I1
tp1185
a(I1
I3
I2
I2
I1
tp1186
a(I2
I2
I1
I1
I-1
tp1187
a(I2
I2
I2
I2
I-1
tp1188
a(I3
I1
I1
I1
I1
tp1189
a(I3
I1
I2
I2
I1
tp1190
aa(lp1191
(I1
I2
I2
I1
I1
tp1192
a(I1
I3
I1
I1
g255
tp1193
a(I1
I3
I2
I2
g504
tp1194
a(I2
I1
I2
I1
I-1
tp1195
a(I2
I3
I1
I2
I-1
tp1196
a(I3
I1
I1
I1
g504
tp1197
a(I3
I1
I2
I2
g255
tp1198
a(I3
I2
I1
I2
I1
tp1199
aas((I2
I01
tp1200
(I1
I01
tp1201
(I2
I01
tp1202
(I1
I01
tp1203
tp1204
(lp1205
(lp1206
(I1
I2
I2
I2
g802
tp1207
a(I1
I2
I3
I1
g809
tp1208
a(I2
I1
I2
I2
g798
tp1209
a(I2
I1
I3
I1
g802
tp1210
a(I2
I2
I1
I2
g782
tp1211
a(I2
I2
I2
I1
g794
tp1212
a(I3
I1
I1
I2
g789
tp1213
a(I3
I1
I2
I1
g782
tp1214
aa(lp1215
(I1
I1
I3
I2
g208
tp1216
a(I1
I2
I2
I2
g798
tp1217
a(I1
I2
I3
I1
g816
tp1218
a(I2
I1
I2
I2
g782
tp1219
a(I2
I1
I3
I1
g798
tp1220
a(I2
I2
I1
I2
g794
tp1221
a(I2
I2
I2
I1
g802
tp1222
a(I3
I1
I1
I2
g829
tp1223
a(I3
I1
I2
I1
g794
tp1224
a(I3
I2
I1
I1
g822
tp1225
aas((I1
I01
tp1226
(I1
tp1227
(I2
tp1228
(I2
I01
tp1229
tp1230
(lp1231
(lp1232
(I1
I1
I1
I1
I1
tp1233
a(I1
I1
I2
I2
I1
tp1234
a(I1
I1
I3
I3
I1
tp1235
a(I2
I2
I1
I1
I1
tp1236
a(I2
I2
I2
I2
I1
tp1237
a(I2
I2
I3
I3
I1
tp1238
aa(lp1239
(I1
I1
I1
I1
g504
tp1240
a(I1
I1
I3
I3
g255
tp1241
a(I1
I2
I1
I2
I1
tp1242
a(I1
I2
I2
I3
I1
tp1243
a(I2
I1
I2
I1
I1
tp1244
a(I2
I1
I3
I2
I1
tp1245
a(I2
I2
I1
I1
g255
tp1246
a(I2
I2
I3
I3
g504
tp1247
aas((I1
tp1248
(I2
I01
tp1249
(I2
I01
tp1250
(I1
I01
tp1251
tp1252
(lp1253
(lp1254
(I1
I1
I2
I2
g802
tp1255
a(I1
I1
I3
I1
g809
tp1256
a(I1
I2
I1
I2
g782
tp1257
a(I1
I2
I2
I1
g794
tp1258
a(I2
I2
I2
I2
g794
tp1259
a(I2
I2
I3
I1
g782
tp1260
a(I2
I3
I1
I2
g809
tp1261
a(I2
I3
I2
I1
g802
tp1262
aa(lp1263
(I1
I1
I2
I2
g794
tp1264
a(I1
I1
I3
I1
g829
tp1265
a(I1
I2
I1
I2
g798
tp1266
a(I1
I2
I2
I1
g782
tp1267
a(I1
I3
I1
I1
g208
tp1268
a(I2
I1
I3
I2
g208
tp1269
a(I2
I2
I2
I2
g782
tp1270
a(I2
I2
I3
I1
g798
tp1271
a(I2
I3
I1
I2
g829
tp1272
a(I2
I3
I2
I1
g794
tp1273
aas((I2
I01
tp1274
(I1
tp1275
(I1
I01
tp1276
(I2
tp1277
tp1278
(lp1279
(lp1280
(I1
I1
I1
I1
g789
tp1281
a(I1
I1
I2
I2
g802
tp1282
a(I2
I1
I1
I2
g794
tp1283
a(I2
I1
I2
I3
g802
tp1284
a(I2
I2
I1
I1
g802
tp1285
a(I2
I2
I2
I2
g794
tp1286
a(I3
I2
I1
I2
g802
tp1287
a(I3
I2
I2
I3
g789
tp1288
aa(lp1289
(I1
I1
I1
I1
g829
tp1290
a(I1
I1
I2
I2
g798
tp1291
a(I1
I2
I2
I1
g208
tp1292
a(I2
I1
I1
I2
g802
tp1293
a(I2
I1
I2
I3
g798
tp1294
a(I2
I2
I1
I1
g798
tp1295
a(I2
I2
I2
I2
g802
tp1296
a(I3
I1
I1
I3
g208
tp1297
a(I3
I2
I1
I2
g798
tp1298
a(I3
I2
I2
I3
g829
tp1299
aas((I2
I01
tp1300
(I2
tp1301
(I1
I01
tp1302
(I1
I01
tp1303
tp1304
(lp1305
(lp1306
(I1
I1
I1
I2
I-1
tp1307
a(I1
I1
I2
I1
I1
tp1308
a(I2
I2
I1
I2
I-1
tp1309
a(I2
I2
I2
I1
I1
tp1310
a(I3
I3
I1
I2
I-1
tp1311
a(I3
I3
I2
I1
I1
tp1312
aa(lp1313
(I1
I1
I1
I2
g504
tp1314
a(I1
I1
I2
I1
g504
tp1315
a(I1
I2
I2
I2
I1
tp1316
a(I2
I1
I1
I1
I-1
tp1317
a(I2
I3
I2
I2
I1
tp1318
a(I3
I2
I1
I1
I-1
tp1319
a(I3
I3
I1
I2
g255
tp1320
a(I3
I3
I2
I1
g255
tp1321
aas((I2
tp1322
(I2
tp1323
(I1
I01
tp1324
(I1
tp1325
tp1326
(lp1327
(lp1328
(I1
I3
I1
I1
I1
tp1329
a(I1
I3
I2
I2
I1
tp1330
a(I2
I2
I1
I1
I-1
tp1331
a(I2
I2
I2
I2
I-1
tp1332
a(I3
I1
I1
I1
I1
tp1333
a(I3
I1
I2
I2
I1
tp1334
aa(lp1335
(I1
I2
I1
I2
I-1
tp1336
a(I1
I3
I1
I1
g504
tp1337
a(I1
I3
I2
I2
g255
tp1338
a(I2
I1
I1
I2
I1
tp1339
a(I2
I3
I2
I1
I1
tp1340
a(I3
I1
I1
I1
g255
tp1341
a(I3
I1
I2
I2
g504
tp1342
a(I3
I2
I2
I1
I-1
tp1343
aas((I2
tp1344
(I2
I01
tp1345
(I2
tp1346
(I2
tp1347
tp1348
(lp1349
(lp1350
(I1
I1
I1
I3
I1
tp1351
a(I1
I1
I2
I2
I-1
tp1352
a(I1
I1
I3
I1
I1
tp1353
a(I2
I2
I1
I3
I1
tp1354
a(I2
I2
I2
I2
I-1
tp1355
a(I2
I2
I3
I1
I1
tp1356
a(I3
I3
I1
I3
I1
tp1357
a(I3
I3
I2
I2
I-1
tp1358
a(I3
I3
I3
I1
I1
tp1359
aa(lp1360
(I1
I1
I1
I3
g183
tp1361
a(I1
I1
I3
I1
g187
tp1362
a(I1
I2
I2
I3
g183
tp1363
a(I1
I2
I3
I2
g187
tp1364
a(I2
I1
I1
I2
g187
tp1365
a(I2
I1
I2
I1
g183
tp1366
a(I2
I3
I2
I3
g183
tp1367
a(I2
I3
I3
I2
g187
tp1368
a(I3
I2
I1
I2
g187
tp1369
a(I3
I2
I2
I1
g183
tp1370
a(I3
I3
I1
I3
g187
tp1371
a(I3
I3
I3
I1
g183
tp1372
aa(lp1373
(I1
I1
I1
I3
g31
(g32
(I-1
I10
tp1374
Rp1375
(dp1376
bg1084
tp1377
Rp1378
(dp1379
btp1380
a(I1
I1
I2
I2
g1094
tp1381
a(I1
I1
I3
I1
g1378
tp1382
a(I1
I2
I2
I3
g1109
tp1383
a(I1
I2
I3
I2
g1109
tp1384
a(I1
I3
I3
I3
g31
(g32
(I-3
I5
tp1385
Rp1386
(dp1387
bg1084
tp1388
Rp1389
(dp1390
btp1391
a(I2
I1
I1
I2
g1102
tp1392
a(I2
I1
I2
I1
g1102
tp1393
a(I2
I2
I1
I3
g31
(g32
(I1
I5
tp1394
Rp1395
(dp1396
bg1084
tp1397
Rp1398
(dp1399
btp1400
a(I2
I2
I2
I2
g1126
tp1401
a(I2
I2
I3
I1
g1398
tp1402
a(I2
I3
I2
I3
g1102
tp1403
a(I2
I3
I3
I2
g1102
tp1404
a(I3
I1
I1
I1
g1389
tp1405
a(I3
I2
I1
I2
g1109
tp1406
a(I3
I2
I2
I1
g1109
tp1407
a(I3
I3
I1
I3
g1378
tp1408
a(I3
I3
I2
I2
g1094
tp1409
a(I3
I3
I3
I1
g1378
tp1410
aas((I2
I01
tp1411
(I1
tp1412
(I1
I01
tp1413
(I2
I01
tp1414
tp1415
(lp1416
(lp1417
(I1
I1
I1
I3
g809
tp1418
a(I1
I1
I2
I2
g802
tp1419
a(I2
I1
I1
I2
g794
tp1420
a(I2
I1
I2
I1
g782
tp1421
a(I2
I2
I1
I3
g782
tp1422
a(I2
I2
I2
I2
g794
tp1423
a(I3
I2
I1
I2
g802
tp1424
a(I3
I2
I2
I1
g809
tp1425
aa(lp1426
(I1
I1
I1
I3
g829
tp1427
a(I1
I1
I2
I2
g794
tp1428
a(I1
I2
I2
I3
g208
tp1429
a(I2
I1
I1
I2
g782
tp1430
a(I2
I1
I2
I1
g798
tp1431
a(I2
I2
I1
I3
g798
tp1432
a(I2
I2
I2
I2
g782
tp1433
a(I3
I1
I1
I1
g208
tp1434
a(I3
I2
I1
I2
g794
tp1435
a(I3
I2
I2
I1
g829
tp1436
aas((I1
I01
tp1437
(I1
I01
tp1438
(I2
I01
tp1439
(I2
I01
tp1440
tp1441
(lp1442
(lp1443
(I1
I2
I1
I3
I-1
tp1444
a(I1
I2
I2
I2
I1
tp1445
a(I1
I2
I3
I1
I-1
tp1446
a(I2
I1
I1
I3
I1
tp1447
a(I2
I1
I2
I2
I-1
tp1448
a(I2
I1
I3
I1
I1
tp1449
aa(lp1450
(I1
I1
I2
I3
I1
tp1451
a(I1
I1
I3
I2
I-1
tp1452
a(I1
I2
I1
I3
g255
tp1453
a(I1
I2
I3
I1
g504
tp1454
a(I2
I1
I1
I3
g255
tp1455
a(I2
I1
I3
I1
g504
tp1456
a(I2
I2
I1
I2
I1
tp1457
a(I2
I2
I2
I1
I-1
tp1458
aas((I1
I01
tp1459
(I2
tp1460
(I1
tp1461
(I2
tp1462
tp1463
(lp1464
(lp1465
(I1
I1
I1
I3
g789
tp1466
a(I1
I1
I2
I2
g782
tp1467
a(I1
I2
I1
I2
g798
tp1468
a(I1
I2
I2
I1
g802
tp1469
a(I2
I2
I1
I3
g802
tp1470
a(I2
I2
I2
I2
g798
tp1471
a(I2
I3
I1
I2
g782
tp1472
a(I2
I3
I2
I1
g789
tp1473
aa(lp1474
(I1
I1
I1
I3
g829
tp1475
a(I1
I1
I2
I2
g794
tp1476
a(I1
I2
I1
I2
g782
tp1477
a(I1
I2
I2
I1
g798
tp1478
a(I1
I3
I1
I1
g208
tp1479
a(I2
I1
I2
I3
g208
tp1480
a(I2
I2
I1
I3
g798
tp1481
a(I2
I2
I2
I2
g782
tp1482
a(I2
I3
I1
I2
g794
tp1483
a(I2
I3
I2
I1
g829
tp1484
aas((I2
I01
tp1485
(I1
tp1486
(I1
tp1487
(I2
I01
tp1488
tp1489
(lp1490
(lp1491
(I1
I1
I1
I2
g802
tp1492
a(I1
I1
I2
I3
g789
tp1493
a(I2
I1
I1
I1
g782
tp1494
a(I2
I1
I2
I2
g798
tp1495
a(I2
I2
I1
I2
g794
tp1496
a(I2
I2
I2
I3
g802
tp1497
a(I3
I2
I1
I1
g809
tp1498
a(I3
I2
I2
I2
g782
tp1499
aa(lp1500
(I1
I1
I1
I2
g794
tp1501
a(I1
I1
I2
I3
g816
tp1502
a(I1
I2
I1
I3
g208
tp1503
a(I2
I1
I1
I1
g798
tp1504
a(I2
I1
I2
I2
g802
tp1505
a(I2
I2
I1
I2
g782
tp1506
a(I2
I2
I2
I3
g794
tp1507
a(I3
I1
I2
I1
g822
tp1508
a(I3
I2
I1
I1
g829
tp1509
a(I3
I2
I2
I2
g798
tp1510
aas((I1
I01
tp1511
(I2
tp1512
(I1
I01
tp1513
(I2
I01
tp1514
tp1515
(lp1516
(lp1517
(I1
I1
I1
I2
g782
tp1518
a(I1
I1
I2
I1
g789
tp1519
a(I1
I2
I1
I3
g782
tp1520
a(I1
I2
I2
I2
g794
tp1521
a(I2
I2
I1
I2
g798
tp1522
a(I2
I2
I2
I1
g802
tp1523
a(I2
I3
I1
I3
g809
tp1524
a(I2
I3
I2
I2
g802
tp1525
aa(lp1526
(I1
I1
I1
I2
g794
tp1527
a(I1
I1
I2
I1
g829
tp1528
a(I1
I2
I1
I3
g794
tp1529
a(I1
I2
I2
I2
g802
tp1530
a(I1
I3
I2
I3
g208
tp1531
a(I2
I1
I1
I1
g822
tp1532
a(I2
I2
I1
I2
g782
tp1533
a(I2
I2
I2
I1
g798
tp1534
a(I2
I3
I1
I3
g816
tp1535
a(I2
I3
I2
I2
g798
tp1536
aas((I2
I01
tp1537
(I1
I01
tp1538
(I1
tp1539
(I2
I01
tp1540
tp1541
(lp1542
(lp1543
(I1
I2
I1
I2
g802
tp1544
a(I1
I2
I2
I3
g789
tp1545
a(I2
I1
I1
I2
g798
tp1546
a(I2
I1
I2
I3
g782
tp1547
a(I2
I2
I1
I1
g782
tp1548
a(I2
I2
I2
I2
g798
tp1549
a(I3
I1
I1
I1
g789
tp1550
a(I3
I1
I2
I2
g802
tp1551
aa(lp1552
(I1
I1
I1
I3
g208
tp1553
a(I1
I2
I1
I2
g798
tp1554
a(I1
I2
I2
I3
g829
tp1555
a(I2
I1
I1
I2
g782
tp1556
a(I2
I1
I2
I3
g794
tp1557
a(I2
I2
I1
I1
g794
tp1558
a(I2
I2
I2
I2
g782
tp1559
a(I3
I1
I1
I1
g829
tp1560
a(I3
I1
I2
I2
g798
tp1561
a(I3
I2
I2
I1
g208
tp1562
aas((I1
tp1563
(I1
I01
tp1564
(I1
I01
tp1565
(I1
I01
tp1566
tp1567
(lp1568
(lp1569
(I1
I1
I1
I2
I-1
tp1570
a(I1
I1
I2
I1
I1
tp1571
a(I2
I2
I1
I2
I-1
tp1572
a(I2
I2
I2
I1
I1
tp1573
aa(lp1574
(I1
I1
I1
I2
g798
tp1575
a(I1
I1
I2
I1
g798
tp1576
a(I1
I2
I1
I1
g789
tp1577
a(I2
I1
I2
I2
g809
tp1578
a(I2
I2
I1
I2
g794
tp1579
a(I2
I2
I2
I1
g794
tp1580
aas((I1
I01
tp1581
(I2
I01
tp1582
(I1
I01
tp1583
(I2
I01
tp1584
tp1585
(lp1586
(lp1587
(I1
I2
I1
I3
g782
tp1588
a(I1
I2
I2
I2
g794
tp1589
a(I1
I3
I1
I2
g802
tp1590
a(I1
I3
I2
I1
g809
tp1591
a(I2
I1
I1
I3
g789
tp1592
a(I2
I1
I2
I2
g782
tp1593
a(I2
I2
I1
I2
g798
tp1594
a(I2
I2
I2
I1
g802
tp1595
aa(lp1596
(I1
I1
I2
I3
g208
tp1597
a(I1
I2
I1
I3
g798
tp1598
a(I1
I2
I2
I2
g782
tp1599
a(I1
I3
I1
I2
g794
tp1600
a(I1
I3
I2
I1
g829
tp1601
a(I2
I1
I1
I3
g816
tp1602
a(I2
I1
I2
I2
g798
tp1603
a(I2
I2
I1
I2
g802
tp1604
a(I2
I2
I2
I1
g794
tp1605
a(I2
I3
I1
I1
g822
tp1606
aas((I2
I01
tp1607
(I2
I01
tp1608
(I2
I01
tp1609
(I2
I01
tp1610
tp1611
(lp1612
(lp1613
(I1
I3
I1
I3
I1
tp1614
a(I1
I3
I2
I2
I-1
tp1615
a(I1
I3
I3
I1
I1
tp1616
a(I2
I2
I1
I3
I-1
tp1617
a(I2
I2
I2
I2
I1
tp1618
a(I2
I2
I3
I1
I-1
tp1619
a(I3
I1
I1
I3
I1
tp1620
a(I3
I1
I2
I2
I-1
tp1621
a(I3
I1
I3
I1
I1
tp1622
aa(lp1623
(I1
I2
I2
I3
g187
tp1624
a(I1
I2
I3
I2
g183
tp1625
a(I1
I3
I1
I3
g183
tp1626
a(I1
I3
I3
I1
g187
tp1627
a(I2
I1
I2
I3
g183
tp1628
a(I2
I1
I3
I2
g187
tp1629
a(I2
I3
I1
I2
g187
tp1630
a(I2
I3
I2
I1
g183
tp1631
a(I3
I1
I1
I3
g187
tp1632
a(I3
I1
I3
I1
g183
tp1633
a(I3
I2
I1
I2
g183
tp1634
a(I3
I2
I2
I1
g187
tp1635
aa(lp1636
(I1
I1
I3
I3
g1116
tp1637
a(I1
I2
I2
I3
g1109
tp1638
a(I1
I2
I3
I2
g1109
tp1639
a(I1
I3
I1
I3
g1087
tp1640
a(I1
I3
I2
I2
g1398
tp1641
a(I1
I3
I3
I1
g1087
tp1642
a(I2
I1
I2
I3
g1109
tp1643
a(I2
I1
I3
I2
g1109
tp1644
a(I2
I2
I1
I3
g1398
tp1645
a(I2
I2
I2
I2
g1126
tp1646
a(I2
I2
I3
I1
g1398
tp1647
a(I2
I3
I1
I2
g1109
tp1648
a(I2
I3
I2
I1
g1109
tp1649
a(I3
I1
I1
I3
g1087
tp1650
a(I3
I1
I2
I2
g1398
tp1651
a(I3
I1
I3
I1
g1087
tp1652
a(I3
I2
I1
I2
g1109
tp1653
a(I3
I2
I2
I1
g1109
tp1654
a(I3
I3
I1
I1
g1116
tp1655
aas((I1
tp1656
(I1
tp1657
(I1
I01
tp1658
(I1
I01
tp1659
tp1660
(lp1661
(lp1662
(I1
I2
I1
I2
I1
tp1663
a(I1
I2
I2
I1
I-1
tp1664
a(I2
I1
I1
I2
I-1
tp1665
a(I2
I1
I2
I1
I1
tp1666
aa(lp1667
(I1
I1
I1
I1
g809
tp1668
a(I1
I2
I1
I2
g798
tp1669
a(I1
I2
I2
I1
g798
tp1670
a(I2
I1
I1
I2
g798
tp1671
a(I2
I1
I2
I1
g798
tp1672
a(I2
I2
I2
I2
g809
tp1673
aas((I2
tp1674
(I2
tp1675
(I2
I01
tp1676
(I2
tp1677
tp1678
(lp1679
(lp1680
(I1
I3
I1
I1
I1
tp1681
a(I1
I3
I2
I2
I1
tp1682
a(I1
I3
I3
I3
I1
tp1683
a(I2
I2
I1
I1
I-1
tp1684
a(I2
I2
I2
I2
I-1
tp1685
a(I2
I2
I3
I3
I-1
tp1686
a(I3
I1
I1
I1
I1
tp1687
a(I3
I1
I2
I2
I1
tp1688
a(I3
I1
I3
I3
I1
tp1689
aa(lp1690
(I1
I2
I1
I2
g183
tp1691
a(I1
I2
I2
I3
g183
tp1692
a(I1
I3
I1
I1
g187
tp1693
a(I1
I3
I3
I3
g183
tp1694
a(I2
I1
I1
I2
g187
tp1695
a(I2
I1
I2
I3
g187
tp1696
a(I2
I3
I2
I1
g187
tp1697
a(I2
I3
I3
I2
g187
tp1698
a(I3
I1
I1
I1
g183
tp1699
a(I3
I1
I3
I3
g187
tp1700
a(I3
I2
I2
I1
g183
tp1701
a(I3
I2
I3
I2
g183
tp1702
aa(lp1703
(I1
I1
I1
I3
g1116
tp1704
a(I1
I2
I1
I2
g1109
tp1705
a(I1
I2
I2
I3
g1102
tp1706
a(I1
I3
I1
I1
g1087
tp1707
a(I1
I3
I2
I2
g1094
tp1708
a(I1
I3
I3
I3
g1087
tp1709
a(I2
I1
I1
I2
g1109
tp1710
a(I2
I1
I2
I3
g1102
tp1711
a(I2
I2
I1
I1
g1398
tp1712
a(I2
I2
I2
I2
g31
(g32
(I-2
I5
tp1713
Rp1714
(dp1715
bg1084
tp1716
Rp1717
(dp1718
btp1719
a(I2
I2
I3
I3
g1398
tp1720
a(I2
I3
I2
I1
g1102
tp1721
a(I2
I3
I3
I2
g1109
tp1722
a(I3
I1
I1
I1
g1087
tp1723
a(I3
I1
I2
I2
g1094
tp1724
a(I3
I1
I3
I3
g1087
tp1725
a(I3
I2
I2
I1
g1102
tp1726
a(I3
I2
I3
I2
g1109
tp1727
a(I3
I3
I3
I1
g1116
tp1728
aas((I1
I01
tp1729
(I2
tp1730
(I1
tp1731
(I2
I01
tp1732
tp1733
(lp1734
(lp1735
(I1
I1
I1
I1
g789
tp1736
a(I1
I1
I2
I2
g802
tp1737
a(I1
I2
I1
I2
g794
tp1738
a(I1
I2
I2
I3
g802
tp1739
a(I2
I2
I1
I1
g802
tp1740
a(I2
I2
I2
I2
g794
tp1741
a(I2
I3
I1
I2
g802
tp1742
a(I2
I3
I2
I3
g789
tp1743
aa(lp1744
(I1
I1
I1
I1
g829
tp1745
a(I1
I1
I2
I2
g798
tp1746
a(I1
I2
I1
I2
g802
tp1747
a(I1
I2
I2
I3
g798
tp1748
a(I1
I3
I1
I3
g208
tp1749
a(I2
I1
I2
I1
g208
tp1750
a(I2
I2
I1
I1
g798
tp1751
a(I2
I2
I2
I2
g802
tp1752
a(I2
I3
I1
I2
g798
tp1753
a(I2
I3
I2
I3
g829
tp1754
aas((I2
I01
tp1755
(I1
I01
tp1756
(I1
tp1757
(I2
tp1758
tp1759
(lp1760
(lp1761
(I1
I2
I1
I2
g782
tp1762
a(I1
I2
I2
I1
g789
tp1763
a(I2
I1
I1
I2
g794
tp1764
a(I2
I1
I2
I1
g782
tp1765
a(I2
I2
I1
I3
g782
tp1766
a(I2
I2
I2
I2
g794
tp1767
a(I3
I1
I1
I3
g789
tp1768
a(I3
I1
I2
I2
g782
tp1769
aa(lp1770
(I1
I1
I1
I1
g208
tp1771
a(I1
I2
I1
I2
g794
tp1772
a(I1
I2
I2
I1
g829
tp1773
a(I2
I1
I1
I2
g802
tp1774
a(I2
I1
I2
I1
g794
tp1775
a(I2
I2
I1
I3
g794
tp1776
a(I2
I2
I2
I2
g802
tp1777
a(I3
I1
I1
I3
g829
tp1778
a(I3
I1
I2
I2
g794
tp1779
a(I3
I2
I2
I3
g208
tp1780
aas((I2
tp1781
(I1
I01
tp1782
(I1
I01
tp1783
(I2
tp1784
tp1785
(lp1786
(lp1787
(I1
I1
I1
I2
g802
tp1788
a(I1
I1
I2
I3
g789
tp1789
a(I2
I1
I1
I1
g782
tp1790
a(I2
I1
I2
I2
g798
tp1791
a(I2
I2
I1
I2
g794
tp1792
a(I2
I2
I2
I3
g802
tp1793
a(I3
I2
I1
I1
g809
tp1794
a(I3
I2
I2
I2
g782
tp1795
aa(lp1796
(I1
I1
I1
I2
g798
tp1797
a(I1
I1
I2
I3
g829
tp1798
a(I1
I2
I1
I3
g822
tp1799
a(I2
I1
I1
I1
g794
tp1800
a(I2
I1
I2
I2
g782
tp1801
a(I2
I2
I1
I2
g802
tp1802
a(I2
I2
I2
I3
g798
tp1803
a(I3
I1
I2
I1
g208
tp1804
a(I3
I2
I1
I1
g816
tp1805
a(I3
I2
I2
I2
g794
tp1806
aas((I2
tp1807
(I2
I01
tp1808
(I2
tp1809
(I2
I01
tp1810
tp1811
(lp1812
(lp1813
(I1
I1
I1
I1
I1
tp1814
a(I1
I1
I2
I2
I1
tp1815
a(I1
I1
I3
I3
I1
tp1816
a(I2
I2
I1
I1
I1
tp1817
a(I2
I2
I2
I2
I1
tp1818
a(I2
I2
I3
I3
I1
tp1819
a(I3
I3
I1
I1
I1
tp1820
a(I3
I3
I2
I2
I1
tp1821
a(I3
I3
I3
I3
I1
tp1822
aa(lp1823
(I1
I1
I1
I1
g183
tp1824
a(I1
I1
I3
I3
g187
tp1825
a(I1
I2
I2
I1
g183
tp1826
a(I1
I2
I3
I2
g183
tp1827
a(I2
I1
I1
I2
g183
tp1828
a(I2
I1
I2
I3
g183
tp1829
a(I2
I3
I2
I1
g183
tp1830
a(I2
I3
I3
I2
g183
tp1831
a(I3
I2
I1
I2
g183
tp1832
a(I3
I2
I2
I3
g183
tp1833
a(I3
I3
I1
I1
g187
tp1834
a(I3
I3
I3
I3
g183
tp1835
aa(lp1836
(I1
I1
I1
I1
g1378
tp1837
a(I1
I1
I2
I2
g1398
tp1838
a(I1
I1
I3
I3
g1378
tp1839
a(I1
I2
I2
I1
g1109
tp1840
a(I1
I2
I3
I2
g1102
tp1841
a(I1
I3
I3
I1
g1389
tp1842
a(I2
I1
I1
I2
g1109
tp1843
a(I2
I1
I2
I3
g1102
tp1844
a(I2
I2
I1
I1
g1398
tp1845
a(I2
I2
I2
I2
g1717
tp1846
a(I2
I2
I3
I3
g1398
tp1847
a(I2
I3
I2
I1
g1102
tp1848
a(I2
I3
I3
I2
g1109
tp1849
a(I3
I1
I1
I3
g1389
tp1850
a(I3
I2
I1
I2
g1102
tp1851
a(I3
I2
I2
I3
g1109
tp1852
a(I3
I3
I1
I1
g1378
tp1853
a(I3
I3
I2
I2
g1398
tp1854
a(I3
I3
I3
I3
g1378
tp1855
aas((I1
tp1856
(I1
I01
tp1857
(I2
tp1858
(I2
tp1859
tp1860
(lp1861
(lp1862
(I1
I1
I1
I3
I1
tp1863
a(I1
I1
I2
I2
I-1
tp1864
a(I1
I1
I3
I1
I1
tp1865
a(I2
I2
I1
I3
I1
tp1866
a(I2
I2
I2
I2
I-1
tp1867
a(I2
I2
I3
I1
I1
tp1868
aa(lp1869
(I1
I1
I1
I3
g255
tp1870
a(I1
I1
I3
I1
g504
tp1871
a(I1
I2
I2
I3
I-1
tp1872
a(I1
I2
I3
I2
I1
tp1873
a(I2
I1
I1
I2
I1
tp1874
a(I2
I1
I2
I1
I-1
tp1875
a(I2
I2
I1
I3
g504
tp1876
a(I2
I2
I3
I1
g255
tp1877
aas((I1
I01
tp1878
(I1
I01
tp1879
(I2
tp1880
(I2
tp1881
tp1882
(lp1883
(lp1884
(I1
I2
I1
I3
I-1
tp1885
a(I1
I2
I2
I2
I1
tp1886
a(I1
I2
I3
I1
I-1
tp1887
a(I2
I1
I1
I3
I1
tp1888
a(I2
I1
I2
I2
I-1
tp1889
a(I2
I1
I3
I1
I1
tp1890
aa(lp1891
(I1
I1
I1
I2
I-1
tp1892
a(I1
I1
I2
I1
I1
tp1893
a(I1
I2
I1
I3
g255
tp1894
a(I1
I2
I3
I1
g504
tp1895
a(I2
I1
I1
I3
g255
tp1896
a(I2
I1
I3
I1
g504
tp1897
a(I2
I2
I2
I3
I-1
tp1898
a(I2
I2
I3
I2
I1
tp1899
aas((I1
tp1900
(I1
tp1901
(I1
tp1902
(I1
tp1903
tp1904
(lp1905
(lp1906
(I1
I2
I1
I2
I-1
tp1907
a(I1
I2
I2
I1
I1
tp1908
a(I2
I1
I1
I2
I1
tp1909
a(I2
I1
I2
I1
I-1
tp1910
aa(lp1911
(I1
I1
I2
I2
g809
tp1912
a(I1
I2
I1
I2
g794
tp1913
a(I1
I2
I2
I1
g794
tp1914
a(I2
I1
I1
I2
g794
tp1915
a(I2
I1
I2
I1
g794
tp1916
a(I2
I2
I1
I1
g809
tp1917
aas((I1
I01
tp1918
(I1
tp1919
(I2
tp1920
(I2
tp1921
tp1922
(lp1923
(lp1924
(I1
I1
I1
I3
I1
tp1925
a(I1
I1
I2
I2
I-1
tp1926
a(I1
I1
I3
I1
I1
tp1927
a(I2
I2
I1
I3
I1
tp1928
a(I2
I2
I2
I2
I-1
tp1929
a(I2
I2
I3
I1
I1
tp1930
aa(lp1931
(I1
I1
I1
I3
g504
tp1932
a(I1
I1
I3
I1
g255
tp1933
a(I1
I2
I1
I2
I-1
tp1934
a(I1
I2
I2
I1
I1
tp1935
a(I2
I1
I2
I3
I1
tp1936
a(I2
I1
I3
I2
I-1
tp1937
a(I2
I2
I1
I3
g255
tp1938
a(I2
I2
I3
I1
g504
tp1939
aas((I2
I01
tp1940
(I2
I01
tp1941
(I1
I01
tp1942
(I1
I01
tp1943
tp1944
(lp1945
(lp1946
(I1
I3
I1
I2
I-1
tp1947
a(I1
I3
I2
I1
I1
tp1948
a(I2
I2
I1
I2
I1
tp1949
a(I2
I2
I2
I1
I-1
tp1950
a(I3
I1
I1
I2
I-1
tp1951
a(I3
I1
I2
I1
I1
tp1952
aa(lp1953
(I1
I2
I2
I2
I1
tp1954
a(I1
I3
I1
I2
g255
tp1955
a(I1
I3
I2
I1
g255
tp1956
a(I2
I1
I2
I2
I-1
tp1957
a(I2
I3
I1
I1
I1
tp1958
a(I3
I1
I1
I2
g504
tp1959
a(I3
I1
I2
I1
g504
tp1960
a(I3
I2
I1
I1
I-1
tp1961
aas((I1
I01
tp1962
(I2
tp1963
(I2
I01
tp1964
(I1
I01
tp1965
tp1966
(lp1967
(lp1968
(I1
I1
I1
I2
g789
tp1969
a(I1
I1
I2
I1
g782
tp1970
a(I1
I2
I2
I2
g794
tp1971
a(I1
I2
I3
I1
g782
tp1972
a(I2
I2
I1
I2
g802
tp1973
a(I2
I2
I2
I1
g798
tp1974
a(I2
I3
I2
I2
g802
tp1975
a(I2
I3
I3
I1
g809
tp1976
aa(lp1977
(I1
I1
I1
I2
g829
tp1978
a(I1
I1
I2
I1
g794
tp1979
a(I1
I2
I2
I2
g802
tp1980
a(I1
I2
I3
I1
g794
tp1981
a(I1
I3
I3
I2
g208
tp1982
a(I2
I1
I1
I1
g822
tp1983
a(I2
I2
I1
I2
g798
tp1984
a(I2
I2
I2
I1
g782
tp1985
a(I2
I3
I2
I2
g798
tp1986
a(I2
I3
I3
I1
g816
tp1987
aas((I1
I01
tp1988
(I2
tp1989
(I2
tp1990
(I1
I01
tp1991
tp1992
(lp1993
(lp1994
(I1
I1
I2
I1
g782
tp1995
a(I1
I1
I3
I2
g809
tp1996
a(I1
I2
I1
I1
g802
tp1997
a(I1
I2
I2
I2
g794
tp1998
a(I2
I2
I2
I1
g798
tp1999
a(I2
I2
I3
I2
g782
tp2000
a(I2
I3
I1
I1
g789
tp2001
a(I2
I3
I2
I2
g802
tp2002
aa(lp2003
(I1
I1
I2
I1
g798
tp2004
a(I1
I1
I3
I2
g829
tp2005
a(I1
I2
I1
I1
g794
tp2006
a(I1
I2
I2
I2
g782
tp2007
a(I1
I3
I1
I2
g208
tp2008
a(I2
I1
I3
I1
g822
tp2009
a(I2
I2
I2
I1
g802
tp2010
a(I2
I2
I3
I2
g798
tp2011
a(I2
I3
I1
I1
g816
tp2012
a(I2
I3
I2
I2
g794
tp2013
aas((I1
tp2014
(I1
tp2015
(I2
tp2016
(I2
tp2017
tp2018
(lp2019
(lp2020
(I1
I2
I1
I3
I-1
tp2021
a(I1
I2
I2
I2
I1
tp2022
a(I1
I2
I3
I1
I-1
tp2023
a(I2
I1
I1
I3
I1
tp2024
a(I2
I1
I2
I2
I-1
tp2025
a(I2
I1
I3
I1
I1
tp2026
aa(lp2027
(I1
I1
I2
I3
I1
tp2028
a(I1
I1
I3
I2
I-1
tp2029
a(I1
I2
I1
I3
g255
tp2030
a(I1
I2
I3
I1
g504
tp2031
a(I2
I1
I1
I3
g255
tp2032
a(I2
I1
I3
I1
g504
tp2033
a(I2
I2
I1
I2
I1
tp2034
a(I2
I2
I2
I1
I-1
tp2035
aas((I2
I01
tp2036
(I1
tp2037
(I2
I01
tp2038
(I1
tp2039
tp2040
(lp2041
(lp2042
(I1
I1
I2
I1
g802
tp2043
a(I1
I1
I3
I2
g789
tp2044
a(I2
I1
I1
I1
g782
tp2045
a(I2
I1
I2
I2
g798
tp2046
a(I2
I2
I2
I1
g794
tp2047
a(I2
I2
I3
I2
g802
tp2048
a(I3
I2
I1
I1
g809
tp2049
a(I3
I2
I2
I2
g782
tp2050
aa(lp2051
(I1
I1
I2
I1
g794
tp2052
a(I1
I1
I3
I2
g816
tp2053
a(I1
I2
I3
I1
g208
tp2054
a(I2
I1
I1
I1
g798
tp2055
a(I2
I1
I2
I2
g802
tp2056
a(I2
I2
I2
I1
g782
tp2057
a(I2
I2
I3
I2
g794
tp2058
a(I3
I1
I1
I2
g822
tp2059
a(I3
I2
I1
I1
g829
tp2060
a(I3
I2
I2
I2
g798
tp2061
aas((I1
tp2062
(I1
I01
tp2063
(I2
I01
tp2064
(I2
I01
tp2065
tp2066
(lp2067
(lp2068
(I1
I1
I1
I3
I1
tp2069
a(I1
I1
I2
I2
I-1
tp2070
a(I1
I1
I3
I1
I1
tp2071
a(I2
I2
I1
I3
I1
tp2072
a(I2
I2
I2
I2
I-1
tp2073
a(I2
I2
I3
I1
I1
tp2074
aa(lp2075
(I1
I1
I1
I3
g255
tp2076
a(I1
I1
I3
I1
g504
tp2077
a(I1
I2
I1
I2
I1
tp2078
a(I1
I2
I2
I1
I-1
tp2079
a(I2
I1
I2
I3
I-1
tp2080
a(I2
I1
I3
I2
I1
tp2081
a(I2
I2
I1
I3
g504
tp2082
a(I2
I2
I3
I1
g255
tp2083
aas((I1
tp2084
(I1
I01
tp2085
(I1
tp2086
(I1
I01
tp2087
tp2088
(lp2089
(lp2090
(I1
I1
I1
I1
I1
tp2091
a(I1
I1
I2
I2
I1
tp2092
a(I2
I2
I1
I1
I1
tp2093
a(I2
I2
I2
I2
I1
tp2094
aa(lp2095
(I1
I1
I1
I1
g798
tp2096
a(I1
I1
I2
I2
g794
tp2097
a(I1
I2
I2
I1
g809
tp2098
a(I2
I1
I1
I2
g809
tp2099
a(I2
I2
I1
I1
g794
tp2100
a(I2
I2
I2
I2
g798
tp2101
aas((I2
tp2102
(I1
tp2103
(I1
tp2104
(I2
tp2105
tp2106
(lp2107
(lp2108
(I1
I2
I1
I3
g809
tp2109
a(I1
I2
I2
I2
g802
tp2110
a(I2
I1
I1
I3
g802
tp2111
a(I2
I1
I2
I2
g798
tp2112
a(I2
I2
I1
I2
g794
tp2113
a(I2
I2
I2
I1
g782
tp2114
a(I3
I1
I1
I2
g782
tp2115
a(I3
I1
I2
I1
g789
tp2116
aa(lp2117
(I1
I1
I2
I3
g822
tp2118
a(I1
I2
I1
I3
g829
tp2119
a(I1
I2
I2
I2
g794
tp2120
a(I2
I1
I1
I3
g794
tp2121
a(I2
I1
I2
I2
g802
tp2122
a(I2
I2
I1
I2
g782
tp2123
a(I2
I2
I2
I1
g798
tp2124
a(I3
I1
I1
I2
g798
tp2125
a(I3
I1
I2
I1
g816
tp2126
a(I3
I2
I1
I1
g208
tp2127
aas((I2
tp2128
(I1
I01
tp2129
(I2
I01
tp2130
(I1
tp2131
tp2132
(lp2133
(lp2134
(I1
I1
I1
I1
g809
tp2135
a(I1
I1
I2
I2
g782
tp2136
a(I2
I1
I2
I1
g798
tp2137
a(I2
I1
I3
I2
g782
tp2138
a(I2
I2
I1
I1
g782
tp2139
a(I2
I2
I2
I2
g798
tp2140
a(I3
I2
I2
I1
g782
tp2141
a(I3
I2
I3
I2
g809
tp2142
aa(lp2143
(I1
I1
I1
I1
g829
tp2144
a(I1
I1
I2
I2
g798
tp2145
a(I1
I2
I1
I2
g208
tp2146
a(I2
I1
I2
I1
g802
tp2147
a(I2
I1
I3
I2
g798
tp2148
a(I2
I2
I1
I1
g798
tp2149
a(I2
I2
I2
I2
g802
tp2150
a(I3
I1
I3
I1
g208
tp2151
a(I3
I2
I2
I1
g798
tp2152
a(I3
I2
I3
I2
g829
tp2153
aas((I2
tp2154
(I2
tp2155
(I2
I01
tp2156
(I2
I01
tp2157
tp2158
(lp2159
(lp2160
(I1
I3
I1
I3
I1
tp2161
a(I1
I3
I2
I2
I-1
tp2162
a(I1
I3
I3
I1
I1
tp2163
a(I2
I2
I1
I3
I-1
tp2164
a(I2
I2
I2
I2
I1
tp2165
a(I2
I2
I3
I1
I-1
tp2166
a(I3
I1
I1
I3
I1
tp2167
a(I3
I1
I2
I2
I-1
tp2168
a(I3
I1
I3
I1
I1
tp2169
aa(lp2170
(I1
I2
I1
I2
g187
tp2171
a(I1
I2
I2
I1
g183
tp2172
a(I1
I3
I1
I3
g187
tp2173
a(I1
I3
I3
I1
g183
tp2174
a(I2
I1
I1
I2
g183
tp2175
a(I2
I1
I2
I1
g187
tp2176
a(I2
I3
I2
I3
g187
tp2177
a(I2
I3
I3
I2
g183
tp2178
a(I3
I1
I1
I3
g183
tp2179
a(I3
I1
I3
I1
g187
tp2180
a(I3
I2
I2
I3
g183
tp2181
a(I3
I2
I3
I2
g187
tp2182
aa(lp2183
(I1
I1
I1
I1
g1116
tp2184
a(I1
I2
I1
I2
g1102
tp2185
a(I1
I2
I2
I1
g1102
tp2186
a(I1
I3
I1
I3
g1087
tp2187
a(I1
I3
I2
I2
g1398
tp2188
a(I1
I3
I3
I1
g1087
tp2189
a(I2
I1
I1
I2
g1102
tp2190
a(I2
I1
I2
I1
g1102
tp2191
a(I2
I2
I1
I3
g1398
tp2192
a(I2
I2
I2
I2
g1126
tp2193
a(I2
I2
I3
I1
g1398
tp2194
a(I2
I3
I2
I3
g1102
tp2195
a(I2
I3
I3
I2
g1102
tp2196
a(I3
I1
I1
I3
g1087
tp2197
a(I3
I1
I2
I2
g1398
tp2198
a(I3
I1
I3
I1
g1087
tp2199
a(I3
I2
I2
I3
g1102
tp2200
a(I3
I2
I3
I2
g1102
tp2201
a(I3
I3
I3
I3
g1116
tp2202
aas((I2
I01
tp2203
(I2
tp2204
(I1
tp2205
(I1
tp2206
tp2207
(lp2208
(lp2209
(I1
I1
I1
I2
I1
tp2210
a(I1
I1
I2
I1
I-1
tp2211
a(I2
I2
I1
I2
I1
tp2212
a(I2
I2
I2
I1
I-1
tp2213
a(I3
I3
I1
I2
I1
tp2214
a(I3
I3
I2
I1
I-1
tp2215
aa(lp2216
(I1
I1
I1
I2
g255
tp2217
a(I1
I1
I2
I1
g255
tp2218
a(I1
I2
I1
I1
I1
tp2219
a(I2
I1
I2
I2
I-1
tp2220
a(I2
I3
I1
I1
I1
tp2221
a(I3
I2
I2
I2
I-1
tp2222
a(I3
I3
I1
I2
g504
tp2223
a(I3
I3
I2
I1
g504
tp2224
aas((I2
tp2225
(I1
tp2226
(I1
I01
tp2227
(I2
I01
tp2228
tp2229
(lp2230
(lp2231
(I1
I2
I1
I2
g802
tp2232
a(I1
I2
I2
I1
g809
tp2233
a(I2
I1
I1
I2
g798
tp2234
a(I2
I1
I2
I1
g802
tp2235
a(I2
I2
I1
I3
g802
tp2236
a(I2
I2
I2
I2
g798
tp2237
a(I3
I1
I1
I3
g809
tp2238
a(I3
I1
I2
I2
g802
tp2239
aa(lp2240
(I1
I1
I1
I1
g208
tp2241
a(I1
I2
I1
I2
g794
tp2242
a(I1
I2
I2
I1
g829
tp2243
a(I2
I1
I1
I2
g802
tp2244
a(I2
I1
I2
I1
g794
tp2245
a(I2
I2
I1
I3
g794
tp2246
a(I2
I2
I2
I2
g802
tp2247
a(I3
I1
I1
I3
g829
tp2248
a(I3
I1
I2
I2
g794
tp2249
a(I3
I2
I2
I3
g208
tp2250
aas((I1
tp2251
(I1
I01
tp2252
(I1
I01
tp2253
(I1
tp2254
tp2255
(lp2256
(lp2257
(I1
I1
I1
I1
I1
tp2258
a(I1
I1
I2
I2
I1
tp2259
a(I2
I2
I1
I1
I1
tp2260
a(I2
I2
I2
I2
I1
tp2261
aa(lp2262
(I1
I1
I1
I1
g798
tp2263
a(I1
I1
I2
I2
g794
tp2264
a(I1
I2
I1
I2
g809
tp2265
a(I2
I1
I2
I1
g809
tp2266
a(I2
I2
I1
I1
g794
tp2267
a(I2
I2
I2
I2
g798
tp2268
aas((I1
I01
tp2269
(I1
tp2270
(I2
I01
tp2271
(I2
tp2272
tp2273
(lp2274
(lp2275
(I1
I1
I1
I1
I1
tp2276
a(I1
I1
I2
I2
I1
tp2277
a(I1
I1
I3
I3
I1
tp2278
a(I2
I2
I1
I1
I1
tp2279
a(I2
I2
I2
I2
I1
tp2280
a(I2
I2
I3
I3
I1
tp2281
aa(lp2282
(I1
I1
I1
I1
g504
tp2283
a(I1
I1
I3
I3
g255
tp2284
a(I1
I2
I2
I1
I1
tp2285
a(I1
I2
I3
I2
I1
tp2286
a(I2
I1
I1
I2
I1
tp2287
a(I2
I1
I2
I3
I1
tp2288
a(I2
I2
I1
I1
g255
tp2289
a(I2
I2
I3
I3
g504
tp2290
aas((I2
tp2291
(I1
tp2292
(I2
I01
tp2293
(I1
tp2294
tp2295
(lp2296
(lp2297
(I1
I2
I1
I1
g809
tp2298
a(I1
I2
I2
I2
g782
tp2299
a(I2
I1
I1
I1
g802
tp2300
a(I2
I1
I2
I2
g794
tp2301
a(I2
I2
I2
I1
g798
tp2302
a(I2
I2
I3
I2
g782
tp2303
a(I3
I1
I2
I1
g802
tp2304
a(I3
I1
I3
I2
g789
tp2305
aa(lp2306
(I1
I1
I1
I2
g822
tp2307
a(I1
I2
I1
I1
g829
tp2308
a(I1
I2
I2
I2
g798
tp2309
a(I2
I1
I1
I1
g794
tp2310
a(I2
I1
I2
I2
g782
tp2311
a(I2
I2
I2
I1
g802
tp2312
a(I2
I2
I3
I2
g798
tp2313
a(I3
I1
I2
I1
g794
tp2314
a(I3
I1
I3
I2
g816
tp2315
a(I3
I2
I3
I1
g208
tp2316
aas((I2
I01
tp2317
(I1
I01
tp2318
(I1
I01
tp2319
(I2
I01
tp2320
tp2321
(lp2322
(lp2323
(I1
I2
I1
I3
g809
tp2324
a(I1
I2
I2
I2
g802
tp2325
a(I2
I1
I1
I3
g802
tp2326
a(I2
I1
I2
I2
g798
tp2327
a(I2
I2
I1
I2
g794
tp2328
a(I2
I2
I2
I1
g782
tp2329
a(I3
I1
I1
I2
g782
tp2330
a(I3
I1
I2
I1
g789
tp2331
aa(lp2332
(I1
I1
I2
I3
g208
tp2333
a(I1
I2
I1
I3
g816
tp2334
a(I1
I2
I2
I2
g798
tp2335
a(I2
I1
I1
I3
g798
tp2336
a(I2
I1
I2
I2
g782
tp2337
a(I2
I2
I1
I2
g802
tp2338
a(I2
I2
I2
I1
g794
tp2339
a(I3
I1
I1
I2
g794
tp2340
a(I3
I1
I2
I1
g829
tp2341
a(I3
I2
I1
I1
g822
tp2342
aas((I1
I01
tp2343
(I2
I01
tp2344
(I1
I01
tp2345
(I2
tp2346
tp2347
(lp2348
(lp2349
(I1
I2
I1
I1
g802
tp2350
a(I1
I2
I2
I2
g794
tp2351
a(I1
I3
I1
I2
g802
tp2352
a(I1
I3
I2
I3
g789
tp2353
a(I2
I1
I1
I1
g809
tp2354
a(I2
I1
I2
I2
g782
tp2355
a(I2
I2
I1
I2
g798
tp2356
a(I2
I2
I2
I3
g782
tp2357
aa(lp2358
(I1
I1
I2
I1
g208
tp2359
a(I1
I2
I1
I1
g798
tp2360
a(I1
I2
I2
I2
g802
tp2361
a(I1
I3
I1
I2
g798
tp2362
a(I1
I3
I2
I3
g829
tp2363
a(I2
I1
I1
I1
g816
tp2364
a(I2
I1
I2
I2
g794
tp2365
a(I2
I2
I1
I2
g782
tp2366
a(I2
I2
I2
I3
g794
tp2367
a(I2
I3
I1
I3
g822
tp2368
aas((I1
I01
tp2369
(I2
I01
tp2370
(I2
tp2371
(I1
tp2372
tp2373
(lp2374
(lp2375
(I1
I2
I1
I2
g782
tp2376
a(I1
I2
I2
I1
g794
tp2377
a(I1
I3
I2
I2
g782
tp2378
a(I1
I3
I3
I1
g789
tp2379
a(I2
I1
I1
I2
g789
tp2380
a(I2
I1
I2
I1
g782
tp2381
a(I2
I2
I2
I2
g794
tp2382
a(I2
I2
I3
I1
g782
tp2383
aa(lp2384
(I1
I1
I1
I1
g208
tp2385
a(I1
I2
I1
I2
g794
tp2386
a(I1
I2
I2
I1
g802
tp2387
a(I1
I3
I2
I2
g794
tp2388
a(I1
I3
I3
I1
g829
tp2389
a(I2
I1
I1
I2
g829
tp2390
a(I2
I1
I2
I1
g794
tp2391
a(I2
I2
I2
I2
g802
tp2392
a(I2
I2
I3
I1
g794
tp2393
a(I2
I3
I3
I2
g208
tp2394
aas((I1
tp2395
(I2
tp2396
(I1
tp2397
(I2
tp2398
tp2399
(lp2400
(lp2401
(I1
I2
I1
I3
g782
tp2402
a(I1
I2
I2
I2
g794
tp2403
a(I1
I3
I1
I2
g802
tp2404
a(I1
I3
I2
I1
g809
tp2405
a(I2
I1
I1
I3
g789
tp2406
a(I2
I1
I2
I2
g782
tp2407
a(I2
I2
I1
I2
g798
tp2408
a(I2
I2
I2
I1
g802
tp2409
aa(lp2410
(I1
I1
I2
I3
g208
tp2411
a(I1
I2
I1
I3
g798
tp2412
a(I1
I2
I2
I2
g782
tp2413
a(I1
I3
I1
I2
g794
tp2414
a(I1
I3
I2
I1
g829
tp2415
a(I2
I1
I1
I3
g816
tp2416
a(I2
I1
I2
I2
g798
tp2417
a(I2
I2
I1
I2
g802
tp2418
a(I2
I2
I2
I1
g794
tp2419
a(I2
I3
I1
I1
g822
tp2420
aas((I1
tp2421
(I2
I01
tp2422
(I2
tp2423
(I1
tp2424
tp2425
(lp2426
(lp2427
(I1
I1
I1
I2
g809
tp2428
a(I1
I1
I2
I1
g802
tp2429
a(I1
I2
I2
I2
g798
tp2430
a(I1
I2
I3
I1
g802
tp2431
a(I2
I2
I1
I2
g782
tp2432
a(I2
I2
I2
I1
g794
tp2433
a(I2
I3
I2
I2
g782
tp2434
a(I2
I3
I3
I1
g789
tp2435
aa(lp2436
(I1
I1
I1
I2
g816
tp2437
a(I1
I1
I2
I1
g798
tp2438
a(I1
I2
I2
I2
g782
tp2439
a(I1
I2
I3
I1
g798
tp2440
a(I1
I3
I3
I2
g822
tp2441
a(I2
I1
I1
I1
g208
tp2442
a(I2
I2
I1
I2
g794
tp2443
a(I2
I2
I2
I1
g802
tp2444
a(I2
I3
I2
I2
g794
tp2445
a(I2
I3
I3
I1
g829
tp2446
aas((I1
tp2447
(I1
tp2448
(I2
tp2449
(I2
I01
tp2450
tp2451
(lp2452
(lp2453
(I1
I2
I1
I1
I-1
tp2454
a(I1
I2
I2
I2
I-1
tp2455
a(I1
I2
I3
I3
I-1
tp2456
a(I2
I1
I1
I1
I1
tp2457
a(I2
I1
I2
I2
I1
tp2458
a(I2
I1
I3
I3
I1
tp2459
aa(lp2460
(I1
I1
I2
I1
I1
tp2461
a(I1
I1
I3
I2
I1
tp2462
a(I1
I2
I1
I1
g255
tp2463
a(I1
I2
I3
I3
g504
tp2464
a(I2
I1
I1
I1
g255
tp2465
a(I2
I1
I3
I3
g504
tp2466
a(I2
I2
I1
I2
I-1
tp2467
a(I2
I2
I2
I3
I-1
tp2468
aas((I1
I01
tp2469
(I1
I01
tp2470
(I1
I01
tp2471
(I1
tp2472
tp2473
(lp2474
(lp2475
(I1
I2
I1
I1
I-1
tp2476
a(I1
I2
I2
I2
I-1
tp2477
a(I2
I1
I1
I1
I1
tp2478
a(I2
I1
I2
I2
I1
tp2479
aa(lp2480
(I1
I1
I2
I1
g789
tp2481
a(I1
I2
I1
I1
g798
tp2482
a(I1
I2
I2
I2
g794
tp2483
a(I2
I1
I1
I1
g798
tp2484
a(I2
I1
I2
I2
g794
tp2485
a(I2
I2
I1
I2
g809
tp2486
aas((I2
tp2487
(I2
tp2488
(I1
I01
tp2489
(I1
I01
tp2490
tp2491
(lp2492
(lp2493
(I1
I3
I1
I2
I-1
tp2494
a(I1
I3
I2
I1
I1
tp2495
a(I2
I2
I1
I2
I1
tp2496
a(I2
I2
I2
I1
I-1
tp2497
a(I3
I1
I1
I2
I-1
tp2498
a(I3
I1
I2
I1
I1
tp2499
aa(lp2500
(I1
I2
I1
I1
I1
tp2501
a(I1
I3
I1
I2
g504
tp2502
a(I1
I3
I2
I1
g504
tp2503
a(I2
I1
I1
I1
I-1
tp2504
a(I2
I3
I2
I2
I1
tp2505
a(I3
I1
I1
I2
g255
tp2506
a(I3
I1
I2
I1
g255
tp2507
a(I3
I2
I2
I2
I-1
tp2508
aas((I2
I01
tp2509
(I1
I01
tp2510
(I2
tp2511
(I1
I01
tp2512
tp2513
(lp2514
(lp2515
(I1
I2
I1
I1
g789
tp2516
a(I1
I2
I2
I2
g802
tp2517
a(I2
I1
I1
I1
g782
tp2518
a(I2
I1
I2
I2
g798
tp2519
a(I2
I2
I2
I1
g794
tp2520
a(I2
I2
I3
I2
g802
tp2521
a(I3
I1
I2
I1
g782
tp2522
a(I3
I1
I3
I2
g809
tp2523
aa(lp2524
(I1
I1
I1
I2
g208
tp2525
a(I1
I2
I1
I1
g816
tp2526
a(I1
I2
I2
I2
g794
tp2527
a(I2
I1
I1
I1
g798
tp2528
a(I2
I1
I2
I2
g802
tp2529
a(I2
I2
I2
I1
g782
tp2530
a(I2
I2
I3
I2
g794
tp2531
a(I3
I1
I2
I1
g798
tp2532
a(I3
I1
I3
I2
g829
tp2533
a(I3
I2
I3
I1
g822
tp2534
aas((I1
tp2535
(I2
tp2536
(I1
I01
tp2537
(I2
I01
tp2538
tp2539
(lp2540
(lp2541
(I1
I2
I1
I2
g794
tp2542
a(I1
I2
I2
I1
g782
tp2543
a(I1
I3
I1
I3
g789
tp2544
a(I1
I3
I2
I2
g782
tp2545
a(I2
I1
I1
I2
g782
tp2546
a(I2
I1
I2
I1
g789
tp2547
a(I2
I2
I1
I3
g782
tp2548
a(I2
I2
I2
I2
g794
tp2549
aa(lp2550
(I1
I1
I1
I1
g822
tp2551
a(I1
I2
I1
I2
g782
tp2552
a(I1
I2
I2
I1
g798
tp2553
a(I1
I3
I1
I3
g816
tp2554
a(I1
I3
I2
I2
g798
tp2555
a(I2
I1
I1
I2
g798
tp2556
a(I2
I1
I2
I1
g816
tp2557
a(I2
I2
I1
I3
g798
tp2558
a(I2
I2
I2
I2
g782
tp2559
a(I2
I3
I2
I3
g822
tp2560
aas((I2
tp2561
(I2
I01
tp2562
(I1
I01
tp2563
(I1
tp2564
tp2565
(lp2566
(lp2567
(I1
I1
I1
I1
I1
tp2568
a(I1
I1
I2
I2
I1
tp2569
a(I2
I2
I1
I1
I1
tp2570
a(I2
I2
I2
I2
I1
tp2571
a(I3
I3
I1
I1
I1
tp2572
a(I3
I3
I2
I2
I1
tp2573
aa(lp2574
(I1
I1
I1
I1
g255
tp2575
a(I1
I1
I2
I2
g504
tp2576
a(I1
I2
I1
I2
I-1
tp2577
a(I2
I1
I2
I1
I-1
tp2578
a(I2
I3
I1
I2
I-1
tp2579
a(I3
I2
I2
I1
I-1
tp2580
a(I3
I3
I1
I1
g504
tp2581
a(I3
I3
I2
I2
g255
tp2582
aas((I2
tp2583
(I2
I01
tp2584
(I2
I01
tp2585
(I2
tp2586
tp2587
(lp2588
(lp2589
(I1
I1
I1
I1
I1
tp2590
a(I1
I1
I2
I2
I1
tp2591
a(I1
I1
I3
I3
I1
tp2592
a(I2
I2
I1
I1
I1
tp2593
a(I2
I2
I2
I2
I1
tp2594
a(I2
I2
I3
I3
I1
tp2595
a(I3
I3
I1
I1
I1
tp2596
a(I3
I3
I2
I2
I1
tp2597
a(I3
I3
I3
I3
I1
tp2598
aa(lp2599
(I1
I1
I1
I1
g183
tp2600
a(I1
I1
I3
I3
g187
tp2601
a(I1
I2
I1
I2
g183
tp2602
a(I1
I2
I2
I3
g183
tp2603
a(I2
I1
I2
I1
g183
tp2604
a(I2
I1
I3
I2
g183
tp2605
a(I2
I3
I1
I2
g183
tp2606
a(I2
I3
I2
I3
g183
tp2607
a(I3
I2
I2
I1
g183
tp2608
a(I3
I2
I3
I2
g183
tp2609
a(I3
I3
I1
I1
g187
tp2610
a(I3
I3
I3
I3
g183
tp2611
aa(lp2612
(I1
I1
I1
I1
g1378
tp2613
a(I1
I1
I2
I2
g1398
tp2614
a(I1
I1
I3
I3
g1378
tp2615
a(I1
I2
I1
I2
g1109
tp2616
a(I1
I2
I2
I3
g1102
tp2617
a(I1
I3
I1
I3
g1389
tp2618
a(I2
I1
I2
I1
g1109
tp2619
a(I2
I1
I3
I2
g1102
tp2620
a(I2
I2
I1
I1
g1398
tp2621
a(I2
I2
I2
I2
g1717
tp2622
a(I2
I2
I3
I3
g1398
tp2623
a(I2
I3
I1
I2
g1102
tp2624
a(I2
I3
I2
I3
g1109
tp2625
a(I3
I1
I3
I1
g1389
tp2626
a(I3
I2
I2
I1
g1102
tp2627
a(I3
I2
I3
I2
g1109
tp2628
a(I3
I3
I1
I1
g1378
tp2629
a(I3
I3
I2
I2
g1398
tp2630
a(I3
I3
I3
I3
g1378
tp2631
aas((I1
I01
tp2632
(I1
I01
tp2633
(I1
tp2634
(I1
tp2635
tp2636
(lp2637
(lp2638
(I1
I2
I1
I2
I-1
tp2639
a(I1
I2
I2
I1
I1
tp2640
a(I2
I1
I1
I2
I1
tp2641
a(I2
I1
I2
I1
I-1
tp2642
aa(lp2643
(I1
I1
I1
I1
g789
tp2644
a(I1
I2
I1
I2
g794
tp2645
a(I1
I2
I2
I1
g794
tp2646
a(I2
I1
I1
I2
g794
tp2647
a(I2
I1
I2
I1
g794
tp2648
a(I2
I2
I2
I2
g789
tp2649
aas((I1
I01
tp2650
(I2
I01
tp2651
(I1
tp2652
(I2
tp2653
tp2654
(lp2655
(lp2656
(I1
I2
I1
I2
g798
tp2657
a(I1
I2
I2
I1
g802
tp2658
a(I1
I3
I1
I3
g809
tp2659
a(I1
I3
I2
I2
g802
tp2660
a(I2
I1
I1
I2
g802
tp2661
a(I2
I1
I2
I1
g809
tp2662
a(I2
I2
I1
I3
g802
tp2663
a(I2
I2
I2
I2
g798
tp2664
aa(lp2665
(I1
I1
I1
I1
g208
tp2666
a(I1
I2
I1
I2
g802
tp2667
a(I1
I2
I2
I1
g794
tp2668
a(I1
I3
I1
I3
g829
tp2669
a(I1
I3
I2
I2
g794
tp2670
a(I2
I1
I1
I2
g794
tp2671
a(I2
I1
I2
I1
g829
tp2672
a(I2
I2
I1
I3
g794
tp2673
a(I2
I2
I2
I2
g802
tp2674
a(I2
I3
I2
I3
g208
tp2675
aas((I1
I01
tp2676
(I1
tp2677
(I2
I01
tp2678
(I2
I01
tp2679
tp2680
(lp2681
(lp2682
(I1
I1
I1
I3
I1
tp2683
a(I1
I1
I2
I2
I-1
tp2684
a(I1
I1
I3
I1
I1
tp2685
a(I2
I2
I1
I3
I1
tp2686
a(I2
I2
I2
I2
I-1
tp2687
a(I2
I2
I3
I1
I1
tp2688
aa(lp2689
(I1
I1
I1
I3
g504
tp2690
a(I1
I1
I3
I1
g255
tp2691
a(I1
I2
I2
I3
I1
tp2692
a(I1
I2
I3
I2
I-1
tp2693
a(I2
I1
I1
I2
I-1
tp2694
a(I2
I1
I2
I1
I1
tp2695
a(I2
I2
I1
I3
g255
tp2696
a(I2
I2
I3
I1
g504
tp2697
aas((I2
I01
tp2698
(I2
tp2699
(I2
tp2700
(I2
I01
tp2701
tp2702
(lp2703
(lp2704
(I1
I1
I1
I1
I1
tp2705
a(I1
I1
I2
I2
I1
tp2706
a(I1
I1
I3
I3
I1
tp2707
a(I2
I2
I1
I1
I1
tp2708
a(I2
I2
I2
I2
I1
tp2709
a(I2
I2
I3
I3
I1
tp2710
a(I3
I3
I1
I1
I1
tp2711
a(I3
I3
I2
I2
I1
tp2712
a(I3
I3
I3
I3
I1
tp2713
aa(lp2714
(I1
I1
I1
I1
g187
tp2715
a(I1
I1
I3
I3
g183
tp2716
a(I1
I2
I1
I2
g187
tp2717
a(I1
I2
I2
I3
g187
tp2718
a(I2
I1
I2
I1
g187
tp2719
a(I2
I1
I3
I2
g187
tp2720
a(I2
I3
I1
I2
g187
tp2721
a(I2
I3
I2
I3
g187
tp2722
a(I3
I2
I2
I1
g187
tp2723
a(I3
I2
I3
I2
g187
tp2724
a(I3
I3
I1
I1
g183
tp2725
a(I3
I3
I3
I3
g187
tp2726
aa(lp2727
(I1
I1
I1
I1
g1087
tp2728
a(I1
I1
I2
I2
g1094
tp2729
a(I1
I1
I3
I3
g1087
tp2730
a(I1
I2
I1
I2
g1102
tp2731
a(I1
I2
I2
I3
g1109
tp2732
a(I1
I3
I1
I3
g1116
tp2733
a(I2
I1
I2
I1
g1102
tp2734
a(I2
I1
I3
I2
g1109
tp2735
a(I2
I2
I1
I1
g1094
tp2736
a(I2
I2
I2
I2
g1126
tp2737
a(I2
I2
I3
I3
g1094
tp2738
a(I2
I3
I1
I2
g1109
tp2739
a(I2
I3
I2
I3
g1102
tp2740
a(I3
I1
I3
I1
g1116
tp2741
a(I3
I2
I2
I1
g1109
tp2742
a(I3
I2
I3
I2
g1102
tp2743
a(I3
I3
I1
I1
g1087
tp2744
a(I3
I3
I2
I2
g1094
tp2745
a(I3
I3
I3
I3
g1087
tp2746
aas((I2
tp2747
(I1
tp2748
(I1
I01
tp2749
(I2
tp2750
tp2751
(lp2752
(lp2753
(I1
I2
I1
I2
g802
tp2754
a(I1
I2
I2
I3
g789
tp2755
a(I2
I1
I1
I2
g798
tp2756
a(I2
I1
I2
I3
g782
tp2757
a(I2
I2
I1
I1
g782
tp2758
a(I2
I2
I2
I2
g798
tp2759
a(I3
I1
I1
I1
g789
tp2760
a(I3
I1
I2
I2
g802
tp2761
aa(lp2762
(I1
I1
I1
I3
g208
tp2763
a(I1
I2
I1
I2
g798
tp2764
a(I1
I2
I2
I3
g829
tp2765
a(I2
I1
I1
I2
g782
tp2766
a(I2
I1
I2
I3
g794
tp2767
a(I2
I2
I1
I1
g794
tp2768
a(I2
I2
I2
I2
g782
tp2769
a(I3
I1
I1
I1
g829
tp2770
a(I3
I1
I2
I2
g798
tp2771
a(I3
I2
I2
I1
g208
tp2772
aas((I2
tp2773
(I1
I01
tp2774
(I2
tp2775
(I1
I01
tp2776
tp2777
(lp2778
(lp2779
(I1
I1
I2
I1
g802
tp2780
a(I1
I1
I3
I2
g789
tp2781
a(I2
I1
I1
I1
g782
tp2782
a(I2
I1
I2
I2
g798
tp2783
a(I2
I2
I2
I1
g794
tp2784
a(I2
I2
I3
I2
g802
tp2785
a(I3
I2
I1
I1
g809
tp2786
a(I3
I2
I2
I2
g782
tp2787
aa(lp2788
(I1
I1
I2
I1
g798
tp2789
a(I1
I1
I3
I2
g829
tp2790
a(I1
I2
I3
I1
g822
tp2791
a(I2
I1
I1
I1
g794
tp2792
a(I2
I1
I2
I2
g782
tp2793
a(I2
I2
I2
I1
g802
tp2794
a(I2
I2
I3
I2
g798
tp2795
a(I3
I1
I1
I2
g208
tp2796
a(I3
I2
I1
I1
g816
tp2797
a(I3
I2
I2
I2
g794
tp2798
aas((I2
I01
tp2799
(I1
tp2800
(I2
tp2801
(I1
I01
tp2802
tp2803
(lp2804
(lp2805
(I1
I1
I1
I1
g789
tp2806
a(I1
I1
I2
I2
g802
tp2807
a(I2
I1
I2
I1
g794
tp2808
a(I2
I1
I3
I2
g802
tp2809
a(I2
I2
I1
I1
g802
tp2810
a(I2
I2
I2
I2
g794
tp2811
a(I3
I2
I2
I1
g802
tp2812
a(I3
I2
I3
I2
g789
tp2813
aa(lp2814
(I1
I1
I1
I1
g829
tp2815
a(I1
I1
I2
I2
g798
tp2816
a(I1
I2
I1
I2
g208
tp2817
a(I2
I1
I2
I1
g802
tp2818
a(I2
I1
I3
I2
g798
tp2819
a(I2
I2
I1
I1
g798
tp2820
a(I2
I2
I2
I2
g802
tp2821
a(I3
I1
I3
I1
g208
tp2822
a(I3
I2
I2
I1
g798
tp2823
a(I3
I2
I3
I2
g829
tp2824
aas((I2
I01
tp2825
(I1
tp2826
(I2
tp2827
(I1
tp2828
tp2829
(lp2830
(lp2831
(I1
I1
I1
I2
g809
tp2832
a(I1
I1
I2
I1
g802
tp2833
a(I2
I1
I2
I2
g798
tp2834
a(I2
I1
I3
I1
g802
tp2835
a(I2
I2
I1
I2
g782
tp2836
a(I2
I2
I2
I1
g794
tp2837
a(I3
I2
I2
I2
g782
tp2838
a(I3
I2
I3
I1
g789
tp2839
aa(lp2840
(I1
I1
I1
I2
g816
tp2841
a(I1
I1
I2
I1
g798
tp2842
a(I1
I2
I1
I1
g208
tp2843
a(I2
I1
I2
I2
g782
tp2844
a(I2
I1
I3
I1
g798
tp2845
a(I2
I2
I1
I2
g794
tp2846
a(I2
I2
I2
I1
g802
tp2847
a(I3
I1
I3
I2
g822
tp2848
a(I3
I2
I2
I2
g794
tp2849
a(I3
I2
I3
I1
g829
tp2850
aas((I1
I01
tp2851
(I1
I01
tp2852
(I1
I01
tp2853
(I1
I01
tp2854
tp2855
(lp2856
(lp2857
(I1
I2
I1
I2
I1
tp2858
a(I1
I2
I2
I1
I-1
tp2859
a(I2
I1
I1
I2
I-1
tp2860
a(I2
I1
I2
I1
I1
tp2861
aa(lp2862
(I1
I1
I2
I2
g789
tp2863
a(I1
I2
I1
I2
g798
tp2864
a(I1
I2
I2
I1
g798
tp2865
a(I2
I1
I1
I2
g798
tp2866
a(I2
I1
I2
I1
g798
tp2867
a(I2
I2
I1
I1
g789
tp2868
aas((I1
I01
tp2869
(I1
tp2870
(I1
tp2871
(I1
tp2872
tp2873
(lp2874
(lp2875
(I1
I1
I1
I2
I1
tp2876
a(I1
I1
I2
I1
I-1
tp2877
a(I2
I2
I1
I2
I1
tp2878
a(I2
I2
I2
I1
I-1
tp2879
aa(lp2880
(I1
I1
I1
I2
g798
tp2881
a(I1
I1
I2
I1
g798
tp2882
a(I1
I2
I1
I1
g789
tp2883
a(I2
I1
I2
I2
g809
tp2884
a(I2
I2
I1
I2
g794
tp2885
a(I2
I2
I2
I1
g794
tp2886
aas((I1
I01
tp2887
(I2
tp2888
(I1
I01
tp2889
(I2
tp2890
tp2891
(lp2892
(lp2893
(I1
I1
I1
I2
g782
tp2894
a(I1
I1
I2
I3
g809
tp2895
a(I1
I2
I1
I1
g802
tp2896
a(I1
I2
I2
I2
g794
tp2897
a(I2
I2
I1
I2
g798
tp2898
a(I2
I2
I2
I3
g782
tp2899
a(I2
I3
I1
I1
g789
tp2900
a(I2
I3
I2
I2
g802
tp2901
aa(lp2902
(I1
I1
I1
I2
g798
tp2903
a(I1
I1
I2
I3
g829
tp2904
a(I1
I2
I1
I1
g794
tp2905
a(I1
I2
I2
I2
g782
tp2906
a(I1
I3
I2
I1
g208
tp2907
a(I2
I1
I1
I3
g822
tp2908
a(I2
I2
I1
I2
g802
tp2909
a(I2
I2
I2
I3
g798
tp2910
a(I2
I3
I1
I1
g816
tp2911
a(I2
I3
I2
I2
g794
tp2912
aas((I2
I01
tp2913
(I2
tp2914
(I2
tp2915
(I2
tp2916
tp2917
(lp2918
(lp2919
(I1
I1
I1
I3
I1
tp2920
a(I1
I1
I2
I2
I-1
tp2921
a(I1
I1
I3
I1
I1
tp2922
a(I2
I2
I1
I3
I1
tp2923
a(I2
I2
I2
I2
I-1
tp2924
a(I2
I2
I3
I1
I1
tp2925
a(I3
I3
I1
I3
I1
tp2926
a(I3
I3
I2
I2
I-1
tp2927
a(I3
I3
I3
I1
I1
tp2928
aa(lp2929
(I1
I1
I1
I3
g187
tp2930
a(I1
I1
I3
I1
g183
tp2931
a(I1
I2
I1
I2
g183
tp2932
a(I1
I2
I2
I1
g187
tp2933
a(I2
I1
I2
I3
g187
tp2934
a(I2
I1
I3
I2
g183
tp2935
a(I2
I3
I1
I2
g183
tp2936
a(I2
I3
I2
I1
g187
tp2937
a(I3
I2
I2
I3
g187
tp2938
a(I3
I2
I3
I2
g183
tp2939
a(I3
I3
I1
I3
g183
tp2940
a(I3
I3
I3
I1
g187
tp2941
aa(lp2942
(I1
I1
I1
I3
g1087
tp2943
a(I1
I1
I2
I2
g1398
tp2944
a(I1
I1
I3
I1
g1087
tp2945
a(I1
I2
I1
I2
g1109
tp2946
a(I1
I2
I2
I1
g1109
tp2947
a(I1
I3
I1
I1
g1116
tp2948
a(I2
I1
I2
I3
g1102
tp2949
a(I2
I1
I3
I2
g1102
tp2950
a(I2
I2
I1
I3
g1094
tp2951
a(I2
I2
I2
I2
g1717
tp2952
a(I2
I2
I3
I1
g1094
tp2953
a(I2
I3
I1
I2
g1102
tp2954
a(I2
I3
I2
I1
g1102
tp2955
a(I3
I1
I3
I3
g1116
tp2956
a(I3
I2
I2
I3
g1109
tp2957
a(I3
I2
I3
I2
g1109
tp2958
a(I3
I3
I1
I3
g1087
tp2959
a(I3
I3
I2
I2
g1398
tp2960
a(I3
I3
I3
I1
g1087
tp2961
aas((I2
tp2962
(I2
tp2963
(I1
tp2964
(I1
I01
tp2965
tp2966
(lp2967
(lp2968
(I1
I3
I1
I1
I1
tp2969
a(I1
I3
I2
I2
I1
tp2970
a(I2
I2
I1
I1
I-1
tp2971
a(I2
I2
I2
I2
I-1
tp2972
a(I3
I1
I1
I1
I1
tp2973
a(I3
I1
I2
I2
I1
tp2974
aa(lp2975
(I1
I2
I2
I1
I-1
tp2976
a(I1
I3
I1
I1
g504
tp2977
a(I1
I3
I2
I2
g255
tp2978
a(I2
I1
I2
I1
I1
tp2979
a(I2
I3
I1
I2
I1
tp2980
a(I3
I1
I1
I1
g255
tp2981
a(I3
I1
I2
I2
g504
tp2982
a(I3
I2
I1
I2
I-1
tp2983
aas((I2
I01
tp2984
(I2
I01
tp2985
(I2
tp2986
(I2
tp2987
tp2988
(lp2989
(lp2990
(I1
I3
I1
I3
I1
tp2991
a(I1
I3
I2
I2
I-1
tp2992
a(I1
I3
I3
I1
I1
tp2993
a(I2
I2
I1
I3
I-1
tp2994
a(I2
I2
I2
I2
I1
tp2995
a(I2
I2
I3
I1
I-1
tp2996
a(I3
I1
I1
I3
I1
tp2997
a(I3
I1
I2
I2
I-1
tp2998
a(I3
I1
I3
I1
I1
tp2999
aa(lp3000
(I1
I2
I1
I2
g183
tp3001
a(I1
I2
I2
I1
g187
tp3002
a(I1
I3
I1
I3
g183
tp3003
a(I1
I3
I3
I1
g187
tp3004
a(I2
I1
I1
I2
g187
tp3005
a(I2
I1
I2
I1
g183
tp3006
a(I2
I3
I2
I3
g183
tp3007
a(I2
I3
I3
I2
g187
tp3008
a(I3
I1
I1
I3
g187
tp3009
a(I3
I1
I3
I1
g183
tp3010
a(I3
I2
I2
I3
g187
tp3011
a(I3
I2
I3
I2
g183
tp3012
aa(lp3013
(I1
I1
I1
I1
g1116
tp3014
a(I1
I2
I1
I2
g1102
tp3015
a(I1
I2
I2
I1
g1102
tp3016
a(I1
I3
I1
I3
g1087
tp3017
a(I1
I3
I2
I2
g1398
tp3018
a(I1
I3
I3
I1
g1087
tp3019
a(I2
I1
I1
I2
g1102
tp3020
a(I2
I1
I2
I1
g1102
tp3021
a(I2
I2
I1
I3
g1398
tp3022
a(I2
I2
I2
I2
g1126
tp3023
a(I2
I2
I3
I1
g1398
tp3024
a(I2
I3
I2
I3
g1102
tp3025
a(I2
I3
I3
I2
g1102
tp3026
a(I3
I1
I1
I3
g1087
tp3027
a(I3
I1
I2
I2
g1398
tp3028
a(I3
I1
I3
I1
g1087
tp3029
a(I3
I2
I2
I3
g1102
tp3030
a(I3
I2
I3
I2
g1102
tp3031
a(I3
I3
I3
I3
g1116
tp3032
aas((I2
I01
tp3033
(I2
I01
tp3034
(I2
tp3035
(I2
I01
tp3036
tp3037
(lp3038
(lp3039
(I1
I3
I1
I1
I1
tp3040
a(I1
I3
I2
I2
I1
tp3041
a(I1
I3
I3
I3
I1
tp3042
a(I2
I2
I1
I1
I-1
tp3043
a(I2
I2
I2
I2
I-1
tp3044
a(I2
I2
I3
I3
I-1
tp3045
a(I3
I1
I1
I1
I1
tp3046
a(I3
I1
I2
I2
I1
tp3047
a(I3
I1
I3
I3
I1
tp3048
aa(lp3049
(I1
I2
I1
I2
g187
tp3050
a(I1
I2
I2
I3
g187
tp3051
a(I1
I3
I1
I1
g183
tp3052
a(I1
I3
I3
I3
g187
tp3053
a(I2
I1
I1
I2
g183
tp3054
a(I2
I1
I2
I3
g183
tp3055
a(I2
I3
I2
I1
g183
tp3056
a(I2
I3
I3
I2
g183
tp3057
a(I3
I1
I1
I1
g187
tp3058
a(I3
I1
I3
I3
g183
tp3059
a(I3
I2
I2
I1
g187
tp3060
a(I3
I2
I3
I2
g187
tp3061
aa(lp3062
(I1
I1
I1
I3
g1116
tp3063
a(I1
I2
I1
I2
g1109
tp3064
a(I1
I2
I2
I3
g1102
tp3065
a(I1
I3
I1
I1
g1087
tp3066
a(I1
I3
I2
I2
g1094
tp3067
a(I1
I3
I3
I3
g1087
tp3068
a(I2
I1
I1
I2
g1109
tp3069
a(I2
I1
I2
I3
g1102
tp3070
a(I2
I2
I1
I1
g1398
tp3071
a(I2
I2
I2
I2
g1717
tp3072
a(I2
I2
I3
I3
g1398
tp3073
a(I2
I3
I2
I1
g1102
tp3074
a(I2
I3
I3
I2
g1109
tp3075
a(I3
I1
I1
I1
g1087
tp3076
a(I3
I1
I2
I2
g1094
tp3077
a(I3
I1
I3
I3
g1087
tp3078
a(I3
I2
I2
I1
g1102
tp3079
a(I3
I2
I3
I2
g1109
tp3080
a(I3
I3
I3
I1
g1116
tp3081
aas((I1
tp3082
(I2
I01
tp3083
(I2
tp3084
(I1
I01
tp3085
tp3086
(lp3087
(lp3088
(I1
I1
I1
I1
g789
tp3089
a(I1
I1
I2
I2
g802
tp3090
a(I1
I2
I2
I1
g794
tp3091
a(I1
I2
I3
I2
g802
tp3092
a(I2
I2
I1
I1
g802
tp3093
a(I2
I2
I2
I2
g794
tp3094
a(I2
I3
I2
I1
g802
tp3095
a(I2
I3
I3
I2
g789
tp3096
aa(lp3097
(I1
I1
I1
I1
g829
tp3098
a(I1
I1
I2
I2
g798
tp3099
a(I1
I2
I2
I1
g802
tp3100
a(I1
I2
I3
I2
g798
tp3101
a(I1
I3
I3
I1
g208
tp3102
a(I2
I1
I1
I2
g208
tp3103
a(I2
I2
I1
I1
g798
tp3104
a(I2
I2
I2
I2
g802
tp3105
a(I2
I3
I2
I1
g798
tp3106
a(I2
I3
I3
I2
g829
tp3107
aas((I1
I01
tp3108
(I2
tp3109
(I2
I01
tp3110
(I1
tp3111
tp3112
(lp3113
(lp3114
(I1
I1
I1
I1
g789
tp3115
a(I1
I1
I2
I2
g802
tp3116
a(I1
I2
I2
I1
g794
tp3117
a(I1
I2
I3
I2
g802
tp3118
a(I2
I2
I1
I1
g802
tp3119
a(I2
I2
I2
I2
g794
tp3120
a(I2
I3
I2
I1
g802
tp3121
a(I2
I3
I3
I2
g789
tp3122
aa(lp3123
(I1
I1
I1
I1
g829
tp3124
a(I1
I1
I2
I2
g798
tp3125
a(I1
I2
I2
I1
g802
tp3126
a(I1
I2
I3
I2
g798
tp3127
a(I1
I3
I3
I1
g208
tp3128
a(I2
I1
I1
I2
g208
tp3129
a(I2
I2
I1
I1
g798
tp3130
a(I2
I2
I2
I2
g802
tp3131
a(I2
I3
I2
I1
g798
tp3132
a(I2
I3
I3
I2
g829
tp3133
aas((I1
I01
tp3134
(I1
tp3135
(I1
I01
tp3136
(I1
tp3137
tp3138
(lp3139
(lp3140
(I1
I1
I1
I1
I1
tp3141
a(I1
I1
I2
I2
I1
tp3142
a(I2
I2
I1
I1
I1
tp3143
a(I2
I2
I2
I2
I1
tp3144
aa(lp3145
(I1
I1
I1
I1
g794
tp3146
a(I1
I1
I2
I2
g798
tp3147
a(I1
I2
I2
I1
g789
tp3148
a(I2
I1
I1
I2
g789
tp3149
a(I2
I2
I1
I1
g798
tp3150
a(I2
I2
I2
I2
g794
tp3151
aas((I2
tp3152
(I1
I01
tp3153
(I1
I01
tp3154
(I2
I01
tp3155
tp3156
(lp3157
(lp3158
(I1
I1
I1
I2
g802
tp3159
a(I1
I1
I2
I1
g809
tp3160
a(I2
I1
I1
I3
g802
tp3161
a(I2
I1
I2
I2
g798
tp3162
a(I2
I2
I1
I2
g794
tp3163
a(I2
I2
I2
I1
g782
tp3164
a(I3
I2
I1
I3
g789
tp3165
a(I3
I2
I2
I2
g782
tp3166
aa(lp3167
(I1
I1
I1
I2
g794
tp3168
a(I1
I1
I2
I1
g829
tp3169
a(I1
I2
I1
I1
g822
tp3170
a(I2
I1
I1
I3
g794
tp3171
a(I2
I1
I2
I2
g802
tp3172
a(I2
I2
I1
I2
g782
tp3173
a(I2
I2
I2
I1
g798
tp3174
a(I3
I1
I2
I3
g208
tp3175
a(I3
I2
I1
I3
g816
tp3176
a(I3
I2
I2
I2
g798
tp3177
aas((I1
tp3178
(I2
I01
tp3179
(I2
I01
tp3180
(I1
tp3181
tp3182
(lp3183
(lp3184
(I1
I1
I2
I1
g802
tp3185
a(I1
I1
I3
I2
g789
tp3186
a(I1
I2
I1
I1
g782
tp3187
a(I1
I2
I2
I2
g798
tp3188
a(I2
I2
I2
I1
g794
tp3189
a(I2
I2
I3
I2
g802
tp3190
a(I2
I3
I1
I1
g809
tp3191
a(I2
I3
I2
I2
g782
tp3192
aa(lp3193
(I1
I1
I2
I1
g794
tp3194
a(I1
I1
I3
I2
g816
tp3195
a(I1
I2
I1
I1
g798
tp3196
a(I1
I2
I2
I2
g802
tp3197
a(I1
I3
I1
I2
g822
tp3198
a(I2
I1
I3
I1
g208
tp3199
a(I2
I2
I2
I1
g782
tp3200
a(I2
I2
I3
I2
g794
tp3201
a(I2
I3
I1
I1
g829
tp3202
a(I2
I3
I2
I2
g798
tp3203
aas((I1
tp3204
(I2
I01
tp3205
(I1
I01
tp3206
(I2
tp3207
tp3208
(lp3209
(lp3210
(I1
I1
I1
I1
g789
tp3211
a(I1
I1
I2
I2
g802
tp3212
a(I1
I2
I1
I2
g794
tp3213
a(I1
I2
I2
I3
g802
tp3214
a(I2
I2
I1
I1
g802
tp3215
a(I2
I2
I2
I2
g794
tp3216
a(I2
I3
I1
I2
g802
tp3217
a(I2
I3
I2
I3
g789
tp3218
aa(lp3219
(I1
I1
I1
I1
g829
tp3220
a(I1
I1
I2
I2
g798
tp3221
a(I1
I2
I1
I2
g802
tp3222
a(I1
I2
I2
I3
g798
tp3223
a(I1
I3
I1
I3
g208
tp3224
a(I2
I1
I2
I1
g208
tp3225
a(I2
I2
I1
I1
g798
tp3226
a(I2
I2
I2
I2
g802
tp3227
a(I2
I3
I1
I2
g798
tp3228
a(I2
I3
I2
I3
g829
tp3229
aas((I1
I01
tp3230
(I1
I01
tp3231
(I2
tp3232
(I2
I01
tp3233
tp3234
(lp3235
(lp3236
(I1
I2
I1
I1
I-1
tp3237
a(I1
I2
I2
I2
I-1
tp3238
a(I1
I2
I3
I3
I-1
tp3239
a(I2
I1
I1
I1
I1
tp3240
a(I2
I1
I2
I2
I1
tp3241
a(I2
I1
I3
I3
I1
tp3242
aa(lp3243
(I1
I1
I1
I2
I1
tp3244
a(I1
I1
I2
I3
I1
tp3245
a(I1
I2
I1
I1
g255
tp3246
a(I1
I2
I3
I3
g504
tp3247
a(I2
I1
I1
I1
g255
tp3248
a(I2
I1
I3
I3
g504
tp3249
a(I2
I2
I2
I1
I-1
tp3250
a(I2
I2
I3
I2
I-1
tp3251
aas((I1
tp3252
(I2
tp3253
(I2
tp3254
(I1
I01
tp3255
tp3256
(lp3257
(lp3258
(I1
I2
I2
I1
g794
tp3259
a(I1
I2
I3
I2
g802
tp3260
a(I1
I3
I1
I1
g809
tp3261
a(I1
I3
I2
I2
g782
tp3262
a(I2
I1
I2
I1
g782
tp3263
a(I2
I1
I3
I2
g809
tp3264
a(I2
I2
I1
I1
g802
tp3265
a(I2
I2
I2
I2
g794
tp3266
aa(lp3267
(I1
I1
I3
I1
g822
tp3268
a(I1
I2
I2
I1
g802
tp3269
a(I1
I2
I3
I2
g798
tp3270
a(I1
I3
I1
I1
g816
tp3271
a(I1
I3
I2
I2
g794
tp3272
a(I2
I1
I2
I1
g794
tp3273
a(I2
I1
I3
I2
g816
tp3274
a(I2
I2
I1
I1
g798
tp3275
a(I2
I2
I2
I2
g802
tp3276
a(I2
I3
I1
I2
g822
tp3277
aas((I1
I01
tp3278
(I2
I01
tp3279
(I2
tp3280
(I1
I01
tp3281
tp3282
(lp3283
(lp3284
(I1
I2
I1
I1
g802
tp3285
a(I1
I2
I2
I2
g794
tp3286
a(I1
I3
I2
I1
g802
tp3287
a(I1
I3
I3
I2
g789
tp3288
a(I2
I1
I1
I1
g809
tp3289
a(I2
I1
I2
I2
g782
tp3290
a(I2
I2
I2
I1
g798
tp3291
a(I2
I2
I3
I2
g782
tp3292
aa(lp3293
(I1
I1
I1
I2
g208
tp3294
a(I1
I2
I1
I1
g798
tp3295
a(I1
I2
I2
I2
g802
tp3296
a(I1
I3
I2
I1
g798
tp3297
a(I1
I3
I3
I2
g829
tp3298
a(I2
I1
I1
I1
g816
tp3299
a(I2
I1
I2
I2
g794
tp3300
a(I2
I2
I2
I1
g782
tp3301
a(I2
I2
I3
I2
g794
tp3302
a(I2
I3
I3
I1
g822
tp3303
aas((I2
tp3304
(I1
I01
tp3305
(I2
I01
tp3306
(I1
I01
tp3307
tp3308
(lp3309
(lp3310
(I1
I1
I1
I2
g809
tp3311
a(I1
I1
I2
I1
g802
tp3312
a(I2
I1
I2
I2
g798
tp3313
a(I2
I1
I3
I1
g802
tp3314
a(I2
I2
I1
I2
g782
tp3315
a(I2
I2
I2
I1
g794
tp3316
a(I3
I2
I2
I2
g782
tp3317
a(I3
I2
I3
I1
g789
tp3318
aa(lp3319
(I1
I1
I1
I2
g829
tp3320
a(I1
I1
I2
I1
g794
tp3321
a(I1
I2
I1
I1
g822
tp3322
a(I2
I1
I2
I2
g802
tp3323
a(I2
I1
I3
I1
g794
tp3324
a(I2
I2
I1
I2
g798
tp3325
a(I2
I2
I2
I1
g782
tp3326
a(I3
I1
I3
I2
g208
tp3327
a(I3
I2
I2
I2
g798
tp3328
a(I3
I2
I3
I1
g816
tp3329
aas((I2
I01
tp3330
(I2
tp3331
(I1
tp3332
(I1
I01
tp3333
tp3334
(lp3335
(lp3336
(I1
I1
I1
I1
I1
tp3337
a(I1
I1
I2
I2
I1
tp3338
a(I2
I2
I1
I1
I1
tp3339
a(I2
I2
I2
I2
I1
tp3340
a(I3
I3
I1
I1
I1
tp3341
a(I3
I3
I2
I2
I1
tp3342
aa(lp3343
(I1
I1
I1
I1
g504
tp3344
a(I1
I1
I2
I2
g255
tp3345
a(I1
I2
I1
I2
I1
tp3346
a(I2
I1
I2
I1
I1
tp3347
a(I2
I3
I1
I2
I1
tp3348
a(I3
I2
I2
I1
I1
tp3349
a(I3
I3
I1
I1
g255
tp3350
a(I3
I3
I2
I2
g504
tp3351
aas((I1
tp3352
(I2
I01
tp3353
(I1
I01
tp3354
(I2
I01
tp3355
tp3356
(lp3357
(lp3358
(I1
I1
I1
I3
g809
tp3359
a(I1
I1
I2
I2
g802
tp3360
a(I1
I2
I1
I2
g794
tp3361
a(I1
I2
I2
I1
g782
tp3362
a(I2
I2
I1
I3
g782
tp3363
a(I2
I2
I2
I2
g794
tp3364
a(I2
I3
I1
I2
g802
tp3365
a(I2
I3
I2
I1
g809
tp3366
aa(lp3367
(I1
I1
I1
I3
g829
tp3368
a(I1
I1
I2
I2
g794
tp3369
a(I1
I2
I1
I2
g782
tp3370
a(I1
I2
I2
I1
g798
tp3371
a(I1
I3
I1
I1
g208
tp3372
a(I2
I1
I2
I3
g208
tp3373
a(I2
I2
I1
I3
g798
tp3374
a(I2
I2
I2
I2
g782
tp3375
a(I2
I3
I1
I2
g794
tp3376
a(I2
I3
I2
I1
g829
tp3377
aas((I2
tp3378
(I2
I01
tp3379
(I1
tp3380
(I1
I01
tp3381
tp3382
(lp3383
(lp3384
(I1
I1
I1
I1
I1
tp3385
a(I1
I1
I2
I2
I1
tp3386
a(I2
I2
I1
I1
I1
tp3387
a(I2
I2
I2
I2
I1
tp3388
a(I3
I3
I1
I1
I1
tp3389
a(I3
I3
I2
I2
I1
tp3390
aa(lp3391
(I1
I1
I1
I1
g255
tp3392
a(I1
I1
I2
I2
g504
tp3393
a(I1
I2
I2
I1
I-1
tp3394
a(I2
I1
I1
I2
I-1
tp3395
a(I2
I3
I2
I1
I-1
tp3396
a(I3
I2
I1
I2
I-1
tp3397
a(I3
I3
I1
I1
g504
tp3398
a(I3
I3
I2
I2
g255
tp3399
aas((I2
I01
tp3400
(I2
I01
tp3401
(I1
tp3402
(I1
I01
tp3403
tp3404
(lp3405
(lp3406
(I1
I3
I1
I1
I1
tp3407
a(I1
I3
I2
I2
I1
tp3408
a(I2
I2
I1
I1
I-1
tp3409
a(I2
I2
I2
I2
I-1
tp3410
a(I3
I1
I1
I1
I1
tp3411
a(I3
I1
I2
I2
I1
tp3412
aa(lp3413
(I1
I2
I1
I2
I1
tp3414
a(I1
I3
I1
I1
g255
tp3415
a(I1
I3
I2
I2
g504
tp3416
a(I2
I1
I1
I2
I-1
tp3417
a(I2
I3
I2
I1
I-1
tp3418
a(I3
I1
I1
I1
g504
tp3419
a(I3
I1
I2
I2
g255
tp3420
a(I3
I2
I2
I1
I1
tp3421
aas((I1
I01
tp3422
(I1
tp3423
(I1
tp3424
(I1
I01
tp3425
tp3426
(lp3427
(lp3428
(I1
I1
I1
I1
I1
tp3429
a(I1
I1
I2
I2
I1
tp3430
a(I2
I2
I1
I1
I1
tp3431
a(I2
I2
I2
I2
I1
tp3432
aa(lp3433
(I1
I1
I1
I1
g794
tp3434
a(I1
I1
I2
I2
g798
tp3435
a(I1
I2
I1
I2
g789
tp3436
a(I2
I1
I2
I1
g789
tp3437
a(I2
I2
I1
I1
g798
tp3438
a(I2
I2
I2
I2
g794
tp3439
aas((I2
tp3440
(I2
tp3441
(I1
tp3442
(I1
tp3443
tp3444
(lp3445
(lp3446
(I1
I3
I1
I2
I1
tp3447
a(I1
I3
I2
I1
I-1
tp3448
a(I2
I2
I1
I2
I-1
tp3449
a(I2
I2
I2
I1
I1
tp3450
a(I3
I1
I1
I2
I1
tp3451
a(I3
I1
I2
I1
I-1
tp3452
aa(lp3453
(I1
I2
I2
I2
I1
tp3454
a(I1
I3
I1
I2
g255
tp3455
a(I1
I3
I2
I1
g255
tp3456
a(I2
I1
I2
I2
I-1
tp3457
a(I2
I3
I1
I1
I1
tp3458
a(I3
I1
I1
I2
g504
tp3459
a(I3
I1
I2
I1
g504
tp3460
a(I3
I2
I1
I1
I-1
tp3461
aas((I2
tp3462
(I1
tp3463
(I2
tp3464
(I1
I01
tp3465
tp3466
(lp3467
(lp3468
(I1
I2
I2
I1
g802
tp3469
a(I1
I2
I3
I2
g789
tp3470
a(I2
I1
I2
I1
g798
tp3471
a(I2
I1
I3
I2
g782
tp3472
a(I2
I2
I1
I1
g782
tp3473
a(I2
I2
I2
I2
g798
tp3474
a(I3
I1
I1
I1
g789
tp3475
a(I3
I1
I2
I2
g802
tp3476
aa(lp3477
(I1
I1
I3
I1
g208
tp3478
a(I1
I2
I2
I1
g798
tp3479
a(I1
I2
I3
I2
g829
tp3480
a(I2
I1
I2
I1
g782
tp3481
a(I2
I1
I3
I2
g794
tp3482
a(I2
I2
I1
I1
g794
tp3483
a(I2
I2
I2
I2
g782
tp3484
a(I3
I1
I1
I1
g829
tp3485
a(I3
I1
I2
I2
g798
tp3486
a(I3
I2
I1
I2
g208
tp3487
aas((I1
tp3488
(I2
tp3489
(I1
I01
tp3490
(I2
tp3491
tp3492
(lp3493
(lp3494
(I1
I2
I1
I2
g794
tp3495
a(I1
I2
I2
I3
g802
tp3496
a(I1
I3
I1
I1
g809
tp3497
a(I1
I3
I2
I2
g782
tp3498
a(I2
I1
I1
I2
g782
tp3499
a(I2
I1
I2
I3
g809
tp3500
a(I2
I2
I1
I1
g802
tp3501
a(I2
I2
I2
I2
g794
tp3502
aa(lp3503
(I1
I1
I1
I3
g822
tp3504
a(I1
I2
I1
I2
g802
tp3505
a(I1
I2
I2
I3
g798
tp3506
a(I1
I3
I1
I1
g816
tp3507
a(I1
I3
I2
I2
g794
tp3508
a(I2
I1
I1
I2
g794
tp3509
a(I2
I1
I2
I3
g816
tp3510
a(I2
I2
I1
I1
g798
tp3511
a(I2
I2
I2
I2
g802
tp3512
a(I2
I3
I2
I1
g822
tp3513
aas((I2
tp3514
(I2
I01
tp3515
(I2
I01
tp3516
(I2
I01
tp3517
tp3518
(lp3519
(lp3520
(I1
I1
I1
I3
I1
tp3521
a(I1
I1
I2
I2
I-1
tp3522
a(I1
I1
I3
I1
I1
tp3523
a(I2
I2
I1
I3
I1
tp3524
a(I2
I2
I2
I2
I-1
tp3525
a(I2
I2
I3
I1
I1
tp3526
a(I3
I3
I1
I3
I1
tp3527
a(I3
I3
I2
I2
I-1
tp3528
a(I3
I3
I3
I1
I1
tp3529
aa(lp3530
(I1
I1
I1
I3
g183
tp3531
a(I1
I1
I3
I1
g187
tp3532
a(I1
I2
I1
I2
g187
tp3533
a(I1
I2
I2
I1
g183
tp3534
a(I2
I1
I2
I3
g183
tp3535
a(I2
I1
I3
I2
g187
tp3536
a(I2
I3
I1
I2
g187
tp3537
a(I2
I3
I2
I1
g183
tp3538
a(I3
I2
I2
I3
g183
tp3539
a(I3
I2
I3
I2
g187
tp3540
a(I3
I3
I1
I3
g187
tp3541
a(I3
I3
I3
I1
g183
tp3542
aa(lp3543
(I1
I1
I1
I3
g1378
tp3544
a(I1
I1
I2
I2
g1094
tp3545
a(I1
I1
I3
I1
g1378
tp3546
a(I1
I2
I1
I2
g1102
tp3547
a(I1
I2
I2
I1
g1102
tp3548
a(I1
I3
I1
I1
g1389
tp3549
a(I2
I1
I2
I3
g1109
tp3550
a(I2
I1
I3
I2
g1109
tp3551
a(I2
I2
I1
I3
g1398
tp3552
a(I2
I2
I2
I2
g1126
tp3553
a(I2
I2
I3
I1
g1398
tp3554
a(I2
I3
I1
I2
g1109
tp3555
a(I2
I3
I2
I1
g1109
tp3556
a(I3
I1
I3
I3
g1389
tp3557
a(I3
I2
I2
I3
g1102
tp3558
a(I3
I2
I3
I2
g1102
tp3559
a(I3
I3
I1
I3
g1378
tp3560
a(I3
I3
I2
I2
g1094
tp3561
a(I3
I3
I3
I1
g1378
tp3562
aas((I1
tp3563
(I2
I01
tp3564
(I1
tp3565
(I2
I01
tp3566
tp3567
(lp3568
(lp3569
(I1
I1
I1
I2
g802
tp3570
a(I1
I1
I2
I3
g789
tp3571
a(I1
I2
I1
I1
g782
tp3572
a(I1
I2
I2
I2
g798
tp3573
a(I2
I2
I1
I2
g794
tp3574
a(I2
I2
I2
I3
g802
tp3575
a(I2
I3
I1
I1
g809
tp3576
a(I2
I3
I2
I2
g782
tp3577
aa(lp3578
(I1
I1
I1
I2
g794
tp3579
a(I1
I1
I2
I3
g816
tp3580
a(I1
I2
I1
I1
g798
tp3581
a(I1
I2
I2
I2
g802
tp3582
a(I1
I3
I2
I1
g822
tp3583
a(I2
I1
I1
I3
g208
tp3584
a(I2
I2
I1
I2
g782
tp3585
a(I2
I2
I2
I3
g794
tp3586
a(I2
I3
I1
I1
g829
tp3587
a(I2
I3
I2
I2
g798
tp3588
aas((I1
I01
tp3589
(I1
I01
tp3590
(I2
I01
tp3591
(I2
tp3592
tp3593
(lp3594
(lp3595
(I1
I2
I1
I1
I-1
tp3596
a(I1
I2
I2
I2
I-1
tp3597
a(I1
I2
I3
I3
I-1
tp3598
a(I2
I1
I1
I1
I1
tp3599
a(I2
I1
I2
I2
I1
tp3600
a(I2
I1
I3
I3
I1
tp3601
aa(lp3602
(I1
I1
I2
I1
I1
tp3603
a(I1
I1
I3
I2
I1
tp3604
a(I1
I2
I1
I1
g255
tp3605
a(I1
I2
I3
I3
g504
tp3606
a(I2
I1
I1
I1
g255
tp3607
a(I2
I1
I3
I3
g504
tp3608
a(I2
I2
I1
I2
I-1
tp3609
a(I2
I2
I2
I3
I-1
tp3610
aas((I2
I01
tp3611
(I1
tp3612
(I1
tp3613
(I2
tp3614
tp3615
(lp3616
(lp3617
(I1
I1
I1
I2
g782
tp3618
a(I1
I1
I2
I1
g789
tp3619
a(I2
I1
I1
I3
g782
tp3620
a(I2
I1
I2
I2
g794
tp3621
a(I2
I2
I1
I2
g798
tp3622
a(I2
I2
I2
I1
g802
tp3623
a(I3
I2
I1
I3
g809
tp3624
a(I3
I2
I2
I2
g802
tp3625
aa(lp3626
(I1
I1
I1
I2
g798
tp3627
a(I1
I1
I2
I1
g816
tp3628
a(I1
I2
I1
I1
g208
tp3629
a(I2
I1
I1
I3
g798
tp3630
a(I2
I1
I2
I2
g782
tp3631
a(I2
I2
I1
I2
g802
tp3632
a(I2
I2
I2
I1
g794
tp3633
a(I3
I1
I2
I3
g822
tp3634
a(I3
I2
I1
I3
g829
tp3635
a(I3
I2
I2
I2
g794
tp3636
aas((I2
tp3637
(I2
tp3638
(I2
tp3639
(I2
tp3640
tp3641
(lp3642
(lp3643
(I1
I3
I1
I3
I1
tp3644
a(I1
I3
I2
I2
I-1
tp3645
a(I1
I3
I3
I1
I1
tp3646
a(I2
I2
I1
I3
I-1
tp3647
a(I2
I2
I2
I2
I1
tp3648
a(I2
I2
I3
I1
I-1
tp3649
a(I3
I1
I1
I3
I1
tp3650
a(I3
I1
I2
I2
I-1
tp3651
a(I3
I1
I3
I1
I1
tp3652
aa(lp3653
(I1
I2
I2
I3
g183
tp3654
a(I1
I2
I3
I2
g187
tp3655
a(I1
I3
I1
I3
g187
tp3656
a(I1
I3
I3
I1
g183
tp3657
a(I2
I1
I2
I3
g187
tp3658
a(I2
I1
I3
I2
g183
tp3659
a(I2
I3
I1
I2
g183
tp3660
a(I2
I3
I2
I1
g187
tp3661
a(I3
I1
I1
I3
g183
tp3662
a(I3
I1
I3
I1
g187
tp3663
a(I3
I2
I1
I2
g187
tp3664
a(I3
I2
I2
I1
g183
tp3665
aa(lp3666
(I1
I1
I3
I3
g1116
tp3667
a(I1
I2
I2
I3
g1109
tp3668
a(I1
I2
I3
I2
g1109
tp3669
a(I1
I3
I1
I3
g1087
tp3670
a(I1
I3
I2
I2
g1398
tp3671
a(I1
I3
I3
I1
g1087
tp3672
a(I2
I1
I2
I3
g1109
tp3673
a(I2
I1
I3
I2
g1109
tp3674
a(I2
I2
I1
I3
g1398
tp3675
a(I2
I2
I2
I2
g1126
tp3676
a(I2
I2
I3
I1
g1398
tp3677
a(I2
I3
I1
I2
g1109
tp3678
a(I2
I3
I2
I1
g1109
tp3679
a(I3
I1
I1
I3
g1087
tp3680
a(I3
I1
I2
I2
g1398
tp3681
a(I3
I1
I3
I1
g1087
tp3682
a(I3
I2
I1
I2
g1109
tp3683
a(I3
I2
I2
I1
g1109
tp3684
a(I3
I3
I1
I1
g1116
tp3685
aas((I2
tp3686
(I2
I01
tp3687
(I1
tp3688
(I1
tp3689
tp3690
(lp3691
(lp3692
(I1
I1
I1
I2
I1
tp3693
a(I1
I1
I2
I1
I-1
tp3694
a(I2
I2
I1
I2
I1
tp3695
a(I2
I2
I2
I1
I-1
tp3696
a(I3
I3
I1
I2
I1
tp3697
a(I3
I3
I2
I1
I-1
tp3698
aa(lp3699
(I1
I1
I1
I2
g504
tp3700
a(I1
I1
I2
I1
g504
tp3701
a(I1
I2
I2
I2
I1
tp3702
a(I2
I1
I1
I1
I-1
tp3703
a(I2
I3
I2
I2
I1
tp3704
a(I3
I2
I1
I1
I-1
tp3705
a(I3
I3
I1
I2
g255
tp3706
a(I3
I3
I2
I1
g255
tp3707
aas((I1
tp3708
(I2
tp3709
(I2
I01
tp3710
(I1
tp3711
tp3712
(lp3713
(lp3714
(I1
I2
I1
I1
g782
tp3715
a(I1
I2
I2
I2
g798
tp3716
a(I1
I3
I2
I1
g782
tp3717
a(I1
I3
I3
I2
g809
tp3718
a(I2
I1
I1
I1
g789
tp3719
a(I2
I1
I2
I2
g802
tp3720
a(I2
I2
I2
I1
g794
tp3721
a(I2
I2
I3
I2
g802
tp3722
aa(lp3723
(I1
I1
I1
I2
g208
tp3724
a(I1
I2
I1
I1
g798
tp3725
a(I1
I2
I2
I2
g802
tp3726
a(I1
I3
I2
I1
g798
tp3727
a(I1
I3
I3
I2
g829
tp3728
a(I2
I1
I1
I1
g816
tp3729
a(I2
I1
I2
I2
g794
tp3730
a(I2
I2
I2
I1
g782
tp3731
a(I2
I2
I3
I2
g794
tp3732
a(I2
I3
I3
I1
g822
tp3733
aas((I1
I01
tp3734
(I2
I01
tp3735
(I1
tp3736
(I2
I01
tp3737
tp3738
(lp3739
(lp3740
(I1
I2
I1
I2
g794
tp3741
a(I1
I2
I2
I3
g802
tp3742
a(I1
I3
I1
I1
g809
tp3743
a(I1
I3
I2
I2
g782
tp3744
a(I2
I1
I1
I2
g782
tp3745
a(I2
I1
I2
I3
g809
tp3746
a(I2
I2
I1
I1
g802
tp3747
a(I2
I2
I2
I2
g794
tp3748
aa(lp3749
(I1
I1
I1
I3
g208
tp3750
a(I1
I2
I1
I2
g782
tp3751
a(I1
I2
I2
I3
g794
tp3752
a(I1
I3
I1
I1
g829
tp3753
a(I1
I3
I2
I2
g798
tp3754
a(I2
I1
I1
I2
g798
tp3755
a(I2
I1
I2
I3
g829
tp3756
a(I2
I2
I1
I1
g794
tp3757
a(I2
I2
I2
I2
g782
tp3758
a(I2
I3
I2
I1
g208
tp3759
aas((I2
tp3760
(I2
I01
tp3761
(I1
I01
tp3762
(I1
I01
tp3763
tp3764
(lp3765
(lp3766
(I1
I1
I1
I2
I-1
tp3767
a(I1
I1
I2
I1
I1
tp3768
a(I2
I2
I1
I2
I-1
tp3769
a(I2
I2
I2
I1
I1
tp3770
a(I3
I3
I1
I2
I-1
tp3771
a(I3
I3
I2
I1
I1
tp3772
aa(lp3773
(I1
I1
I1
I2
g255
tp3774
a(I1
I1
I2
I1
g255
tp3775
a(I1
I2
I1
I1
I1
tp3776
a(I2
I1
I2
I2
I-1
tp3777
a(I2
I3
I1
I1
I1
tp3778
a(I3
I2
I2
I2
I-1
tp3779
a(I3
I3
I1
I2
g504
tp3780
a(I3
I3
I2
I1
g504
tp3781
aas((I2
tp3782
(I2
tp3783
(I2
tp3784
(I2
I01
tp3785
tp3786
(lp3787
(lp3788
(I1
I3
I1
I1
I1
tp3789
a(I1
I3
I2
I2
I1
tp3790
a(I1
I3
I3
I3
I1
tp3791
a(I2
I2
I1
I1
I-1
tp3792
a(I2
I2
I2
I2
I-1
tp3793
a(I2
I2
I3
I3
I-1
tp3794
a(I3
I1
I1
I1
I1
tp3795
a(I3
I1
I2
I2
I1
tp3796
a(I3
I1
I3
I3
I1
tp3797
aa(lp3798
(I1
I2
I2
I1
g183
tp3799
a(I1
I2
I3
I2
g183
tp3800
a(I1
I3
I1
I1
g187
tp3801
a(I1
I3
I3
I3
g183
tp3802
a(I2
I1
I2
I1
g187
tp3803
a(I2
I1
I3
I2
g187
tp3804
a(I2
I3
I1
I2
g187
tp3805
a(I2
I3
I2
I3
g187
tp3806
a(I3
I1
I1
I1
g183
tp3807
a(I3
I1
I3
I3
g187
tp3808
a(I3
I2
I1
I2
g183
tp3809
a(I3
I2
I2
I3
g183
tp3810
aa(lp3811
(I1
I1
I3
I1
g1116
tp3812
a(I1
I2
I2
I1
g1109
tp3813
a(I1
I2
I3
I2
g1102
tp3814
a(I1
I3
I1
I1
g1087
tp3815
a(I1
I3
I2
I2
g1094
tp3816
a(I1
I3
I3
I3
g1087
tp3817
a(I2
I1
I2
I1
g1109
tp3818
a(I2
I1
I3
I2
g1102
tp3819
a(I2
I2
I1
I1
g1398
tp3820
a(I2
I2
I2
I2
g1717
tp3821
a(I2
I2
I3
I3
g1398
tp3822
a(I2
I3
I1
I2
g1102
tp3823
a(I2
I3
I2
I3
g1109
tp3824
a(I3
I1
I1
I1
g1087
tp3825
a(I3
I1
I2
I2
g1094
tp3826
a(I3
I1
I3
I3
g1087
tp3827
a(I3
I2
I1
I2
g1102
tp3828
a(I3
I2
I2
I3
g1109
tp3829
a(I3
I3
I1
I3
g1116
tp3830
aas((I1
I01
tp3831
(I1
I01
tp3832
(I1
tp3833
(I1
I01
tp3834
tp3835
(lp3836
(lp3837
(I1
I2
I1
I1
I-1
tp3838
a(I1
I2
I2
I2
I-1
tp3839
a(I2
I1
I1
I1
I1
tp3840
a(I2
I1
I2
I2
I1
tp3841
aa(lp3842
(I1
I1
I1
I2
g789
tp3843
a(I1
I2
I1
I1
g798
tp3844
a(I1
I2
I2
I2
g794
tp3845
a(I2
I1
I1
I1
g798
tp3846
a(I2
I1
I2
I2
g794
tp3847
a(I2
I2
I2
I1
g809
tp3848
aas((I1
I01
tp3849
(I2
I01
tp3850
(I2
I01
tp3851
(I1
tp3852
tp3853
(lp3854
(lp3855
(I1
I2
I2
I1
g794
tp3856
a(I1
I2
I3
I2
g802
tp3857
a(I1
I3
I1
I1
g809
tp3858
a(I1
I3
I2
I2
g782
tp3859
a(I2
I1
I2
I1
g782
tp3860
a(I2
I1
I3
I2
g809
tp3861
a(I2
I2
I1
I1
g802
tp3862
a(I2
I2
I2
I2
g794
tp3863
aa(lp3864
(I1
I1
I3
I1
g208
tp3865
a(I1
I2
I2
I1
g782
tp3866
a(I1
I2
I3
I2
g794
tp3867
a(I1
I3
I1
I1
g829
tp3868
a(I1
I3
I2
I2
g798
tp3869
a(I2
I1
I2
I1
g798
tp3870
a(I2
I1
I3
I2
g829
tp3871
a(I2
I2
I1
I1
g794
tp3872
a(I2
I2
I2
I2
g782
tp3873
a(I2
I3
I1
I2
g208
tp3874
aas((I2
I01
tp3875
(I2
I01
tp3876
(I2
I01
tp3877
(I2
tp3878
tp3879
(lp3880
(lp3881
(I1
I3
I1
I1
I1
tp3882
a(I1
I3
I2
I2
I1
tp3883
a(I1
I3
I3
I3
I1
tp3884
a(I2
I2
I1
I1
I-1
tp3885
a(I2
I2
I2
I2
I-1
tp3886
a(I2
I2
I3
I3
I-1
tp3887
a(I3
I1
I1
I1
I1
tp3888
a(I3
I1
I2
I2
I1
tp3889
a(I3
I1
I3
I3
I1
tp3890
aa(lp3891
(I1
I2
I2
I1
g187
tp3892
a(I1
I2
I3
I2
g187
tp3893
a(I1
I3
I1
I1
g183
tp3894
a(I1
I3
I3
I3
g187
tp3895
a(I2
I1
I2
I1
g183
tp3896
a(I2
I1
I3
I2
g183
tp3897
a(I2
I3
I1
I2
g183
tp3898
a(I2
I3
I2
I3
g183
tp3899
a(I3
I1
I1
I1
g187
tp3900
a(I3
I1
I3
I3
g183
tp3901
a(I3
I2
I1
I2
g187
tp3902
a(I3
I2
I2
I3
g187
tp3903
aa(lp3904
(I1
I1
I3
I1
g1116
tp3905
a(I1
I2
I2
I1
g1109
tp3906
a(I1
I2
I3
I2
g1102
tp3907
a(I1
I3
I1
I1
g1087
tp3908
a(I1
I3
I2
I2
g1094
tp3909
a(I1
I3
I3
I3
g1087
tp3910
a(I2
I1
I2
I1
g1109
tp3911
a(I2
I1
I3
I2
g1102
tp3912
a(I2
I2
I1
I1
g1398
tp3913
a(I2
I2
I2
I2
g1717
tp3914
a(I2
I2
I3
I3
g1398
tp3915
a(I2
I3
I1
I2
g1102
tp3916
a(I2
I3
I2
I3
g1109
tp3917
a(I3
I1
I1
I1
g1087
tp3918
a(I3
I1
I2
I2
g1094
tp3919
a(I3
I1
I3
I3
g1087
tp3920
a(I3
I2
I1
I2
g1102
tp3921
a(I3
I2
I2
I3
g1109
tp3922
a(I3
I3
I1
I3
g1116
tp3923
aas((I2
tp3924
(I1
tp3925
(I2
tp3926
(I1
tp3927
tp3928
(lp3929
(lp3930
(I1
I2
I2
I2
g782
tp3931
a(I1
I2
I3
I1
g789
tp3932
a(I2
I1
I2
I2
g794
tp3933
a(I2
I1
I3
I1
g782
tp3934
a(I2
I2
I1
I2
g802
tp3935
a(I2
I2
I2
I1
g798
tp3936
a(I3
I1
I1
I2
g809
tp3937
a(I3
I1
I2
I1
g802
tp3938
aa(lp3939
(I1
I1
I3
I2
g822
tp3940
a(I1
I2
I2
I2
g794
tp3941
a(I1
I2
I3
I1
g829
tp3942
a(I2
I1
I2
I2
g802
tp3943
a(I2
I1
I3
I1
g794
tp3944
a(I2
I2
I1
I2
g798
tp3945
a(I2
I2
I2
I1
g782
tp3946
a(I3
I1
I1
I2
g816
tp3947
a(I3
I1
I2
I1
g798
tp3948
a(I3
I2
I1
I1
g208
tp3949
aas((I2
I01
tp3950
(I1
I01
tp3951
(I2
tp3952
(I1
tp3953
tp3954
(lp3955
(lp3956
(I1
I2
I1
I2
g809
tp3957
a(I1
I2
I2
I1
g802
tp3958
a(I2
I1
I1
I2
g802
tp3959
a(I2
I1
I2
I1
g798
tp3960
a(I2
I2
I2
I2
g798
tp3961
a(I2
I2
I3
I1
g802
tp3962
a(I3
I1
I2
I2
g802
tp3963
a(I3
I1
I3
I1
g809
tp3964
aa(lp3965
(I1
I1
I1
I1
g208
tp3966
a(I1
I2
I1
I2
g829
tp3967
a(I1
I2
I2
I1
g794
tp3968
a(I2
I1
I1
I2
g794
tp3969
a(I2
I1
I2
I1
g802
tp3970
a(I2
I2
I2
I2
g802
tp3971
a(I2
I2
I3
I1
g794
tp3972
a(I3
I1
I2
I2
g794
tp3973
a(I3
I1
I3
I1
g829
tp3974
a(I3
I2
I3
I2
g208
tp3975
aas((I1
tp3976
(I2
tp3977
(I2
tp3978
(I1
tp3979
tp3980
(lp3981
(lp3982
(I1
I2
I2
I2
g798
tp3983
a(I1
I2
I3
I1
g802
tp3984
a(I1
I3
I1
I2
g789
tp3985
a(I1
I3
I2
I1
g782
tp3986
a(I2
I1
I2
I2
g802
tp3987
a(I2
I1
I3
I1
g809
tp3988
a(I2
I2
I1
I2
g782
tp3989
a(I2
I2
I2
I1
g794
tp3990
aa(lp3991
(I1
I1
I3
I2
g208
tp3992
a(I1
I2
I2
I2
g782
tp3993
a(I1
I2
I3
I1
g798
tp3994
a(I1
I3
I1
I2
g829
tp3995
a(I1
I3
I2
I1
g794
tp3996
a(I2
I1
I2
I2
g798
tp3997
a(I2
I1
I3
I1
g816
tp3998
a(I2
I2
I1
I2
g794
tp3999
a(I2
I2
I2
I1
g802
tp4000
a(I2
I3
I1
I1
g822
tp4001
aas((I1
tp4002
(I1
tp4003
(I1
I01
tp4004
(I1
tp4005
tp4006
(lp4007
(lp4008
(I1
I2
I1
I1
I-1
tp4009
a(I1
I2
I2
I2
I-1
tp4010
a(I2
I1
I1
I1
I1
tp4011
a(I2
I1
I2
I2
I1
tp4012
aa(lp4013
(I1
I1
I1
I2
g789
tp4014
a(I1
I2
I1
I1
g798
tp4015
a(I1
I2
I2
I2
g794
tp4016
a(I2
I1
I1
I1
g798
tp4017
a(I2
I1
I2
I2
g794
tp4018
a(I2
I2
I2
I1
g809
tp4019
aas((I2
I01
tp4020
(I2
tp4021
(I2
I01
tp4022
(I2
I01
tp4023
tp4024
(lp4025
(lp4026
(I1
I1
I1
I3
I1
tp4027
a(I1
I1
I2
I2
I-1
tp4028
a(I1
I1
I3
I1
I1
tp4029
a(I2
I2
I1
I3
I1
tp4030
a(I2
I2
I2
I2
I-1
tp4031
a(I2
I2
I3
I1
I1
tp4032
a(I3
I3
I1
I3
I1
tp4033
a(I3
I3
I2
I2
I-1
tp4034
a(I3
I3
I3
I1
I1
tp4035
aa(lp4036
(I1
I1
I1
I3
g187
tp4037
a(I1
I1
I3
I1
g183
tp4038
a(I1
I2
I2
I3
g187
tp4039
a(I1
I2
I3
I2
g183
tp4040
a(I2
I1
I1
I2
g183
tp4041
a(I2
I1
I2
I1
g187
tp4042
a(I2
I3
I2
I3
g187
tp4043
a(I2
I3
I3
I2
g183
tp4044
a(I3
I2
I1
I2
g183
tp4045
a(I3
I2
I2
I1
g187
tp4046
a(I3
I3
I1
I3
g183
tp4047
a(I3
I3
I3
I1
g187
tp4048
aa(lp4049
(I1
I1
I1
I3
g1087
tp4050
a(I1
I1
I2
I2
g1398
tp4051
a(I1
I1
I3
I1
g1087
tp4052
a(I1
I2
I2
I3
g1102
tp4053
a(I1
I2
I3
I2
g1102
tp4054
a(I1
I3
I3
I3
g1116
tp4055
a(I2
I1
I1
I2
g1109
tp4056
a(I2
I1
I2
I1
g1109
tp4057
a(I2
I2
I1
I3
g1094
tp4058
a(I2
I2
I2
I2
g1717
tp4059
a(I2
I2
I3
I1
g1094
tp4060
a(I2
I3
I2
I3
g1109
tp4061
a(I2
I3
I3
I2
g1109
tp4062
a(I3
I1
I1
I1
g1116
tp4063
a(I3
I2
I1
I2
g1102
tp4064
a(I3
I2
I2
I1
g1102
tp4065
a(I3
I3
I1
I3
g1087
tp4066
a(I3
I3
I2
I2
g1398
tp4067
a(I3
I3
I3
I1
g1087
tp4068
aas((I2
I01
tp4069
(I1
I01
tp4070
(I1
I01
tp4071
(I2
tp4072
tp4073
(lp4074
(lp4075
(I1
I2
I1
I1
g789
tp4076
a(I1
I2
I2
I2
g802
tp4077
a(I2
I1
I1
I1
g782
tp4078
a(I2
I1
I2
I2
g798
tp4079
a(I2
I2
I1
I2
g794
tp4080
a(I2
I2
I2
I3
g802
tp4081
a(I3
I1
I1
I2
g782
tp4082
a(I3
I1
I2
I3
g809
tp4083
aa(lp4084
(I1
I1
I2
I1
g208
tp4085
a(I1
I2
I1
I1
g816
tp4086
a(I1
I2
I2
I2
g794
tp4087
a(I2
I1
I1
I1
g798
tp4088
a(I2
I1
I2
I2
g802
tp4089
a(I2
I2
I1
I2
g782
tp4090
a(I2
I2
I2
I3
g794
tp4091
a(I3
I1
I1
I2
g798
tp4092
a(I3
I1
I2
I3
g829
tp4093
a(I3
I2
I1
I3
g822
tp4094
aas((I2
tp4095
(I1
I01
tp4096
(I1
tp4097
(I2
tp4098
tp4099
(lp4100
(lp4101
(I1
I1
I1
I3
g809
tp4102
a(I1
I1
I2
I2
g802
tp4103
a(I2
I1
I1
I2
g794
tp4104
a(I2
I1
I2
I1
g782
tp4105
a(I2
I2
I1
I3
g782
tp4106
a(I2
I2
I2
I2
g794
tp4107
a(I3
I2
I1
I2
g802
tp4108
a(I3
I2
I2
I1
g809
tp4109
aa(lp4110
(I1
I1
I1
I3
g829
tp4111
a(I1
I1
I2
I2
g794
tp4112
a(I1
I2
I2
I3
g208
tp4113
a(I2
I1
I1
I2
g782
tp4114
a(I2
I1
I2
I1
g798
tp4115
a(I2
I2
I1
I3
g798
tp4116
a(I2
I2
I2
I2
g782
tp4117
a(I3
I1
I1
I1
g208
tp4118
a(I3
I2
I1
I2
g794
tp4119
a(I3
I2
I2
I1
g829
tp4120
aas((I1
tp4121
(I2
tp4122
(I1
tp4123
(I2
I01
tp4124
tp4125
(lp4126
(lp4127
(I1
I2
I1
I1
g782
tp4128
a(I1
I2
I2
I2
g798
tp4129
a(I1
I3
I1
I2
g782
tp4130
a(I1
I3
I2
I3
g809
tp4131
a(I2
I1
I1
I1
g789
tp4132
a(I2
I1
I2
I2
g802
tp4133
a(I2
I2
I1
I2
g794
tp4134
a(I2
I2
I2
I3
g802
tp4135
aa(lp4136
(I1
I1
I2
I1
g208
tp4137
a(I1
I2
I1
I1
g798
tp4138
a(I1
I2
I2
I2
g802
tp4139
a(I1
I3
I1
I2
g798
tp4140
a(I1
I3
I2
I3
g829
tp4141
a(I2
I1
I1
I1
g816
tp4142
a(I2
I1
I2
I2
g794
tp4143
a(I2
I2
I1
I2
g782
tp4144
a(I2
I2
I2
I3
g794
tp4145
a(I2
I3
I1
I3
g822
tp4146
aas((I1
I01
tp4147
(I2
tp4148
(I2
tp4149
(I1
tp4150
tp4151
(lp4152
(lp4153
(I1
I1
I2
I2
g802
tp4154
a(I1
I1
I3
I1
g809
tp4155
a(I1
I2
I1
I2
g782
tp4156
a(I1
I2
I2
I1
g794
tp4157
a(I2
I2
I2
I2
g794
tp4158
a(I2
I2
I3
I1
g782
tp4159
a(I2
I3
I1
I2
g809
tp4160
a(I2
I3
I2
I1
g802
tp4161
aa(lp4162
(I1
I1
I2
I2
g794
tp4163
a(I1
I1
I3
I1
g829
tp4164
a(I1
I2
I1
I2
g798
tp4165
a(I1
I2
I2
I1
g782
tp4166
a(I1
I3
I1
I1
g208
tp4167
a(I2
I1
I3
I2
g208
tp4168
a(I2
I2
I2
I2
g782
tp4169
a(I2
I2
I3
I1
g798
tp4170
a(I2
I3
I1
I2
g829
tp4171
a(I2
I3
I2
I1
g794
tp4172
aas((I1
tp4173
(I1
tp4174
(I2
I01
tp4175
(I2
I01
tp4176
tp4177
(lp4178
(lp4179
(I1
I2
I1
I3
I-1
tp4180
a(I1
I2
I2
I2
I1
tp4181
a(I1
I2
I3
I1
I-1
tp4182
a(I2
I1
I1
I3
I1
tp4183
a(I2
I1
I2
I2
I-1
tp4184
a(I2
I1
I3
I1
I1
tp4185
aa(lp4186
(I1
I1
I1
I2
I-1
tp4187
a(I1
I1
I2
I1
I1
tp4188
a(I1
I2
I1
I3
g255
tp4189
a(I1
I2
I3
I1
g504
tp4190
a(I2
I1
I1
I3
g255
tp4191
a(I2
I1
I3
I1
g504
tp4192
a(I2
I2
I2
I3
I-1
tp4193
a(I2
I2
I3
I2
I1
tp4194
aas((I2
I01
tp4195
(I1
I01
tp4196
(I2
I01
tp4197
(I1
tp4198
tp4199
(lp4200
(lp4201
(I1
I2
I2
I1
g802
tp4202
a(I1
I2
I3
I2
g789
tp4203
a(I2
I1
I2
I1
g798
tp4204
a(I2
I1
I3
I2
g782
tp4205
a(I2
I2
I1
I1
g782
tp4206
a(I2
I2
I2
I2
g798
tp4207
a(I3
I1
I1
I1
g789
tp4208
a(I3
I1
I2
I2
g802
tp4209
aa(lp4210
(I1
I1
I3
I1
g208
tp4211
a(I1
I2
I2
I1
g798
tp4212
a(I1
I2
I3
I2
g829
tp4213
a(I2
I1
I2
I1
g782
tp4214
a(I2
I1
I3
I2
g794
tp4215
a(I2
I2
I1
I1
g794
tp4216
a(I2
I2
I2
I2
g782
tp4217
a(I3
I1
I1
I1
g829
tp4218
a(I3
I1
I2
I2
g798
tp4219
a(I3
I2
I1
I2
g208
tp4220
aas((I2
tp4221
(I1
tp4222
(I2
I01
tp4223
(I1
I01
tp4224
tp4225
(lp4226
(lp4227
(I1
I2
I1
I2
g809
tp4228
a(I1
I2
I2
I1
g802
tp4229
a(I2
I1
I1
I2
g802
tp4230
a(I2
I1
I2
I1
g798
tp4231
a(I2
I2
I2
I2
g798
tp4232
a(I2
I2
I3
I1
g802
tp4233
a(I3
I1
I2
I2
g802
tp4234
a(I3
I1
I3
I1
g809
tp4235
aa(lp4236
(I1
I1
I1
I1
g208
tp4237
a(I1
I2
I1
I2
g829
tp4238
a(I1
I2
I2
I1
g794
tp4239
a(I2
I1
I1
I2
g794
tp4240
a(I2
I1
I2
I1
g802
tp4241
a(I2
I2
I2
I2
g802
tp4242
a(I2
I2
I3
I1
g794
tp4243
a(I3
I1
I2
I2
g794
tp4244
a(I3
I1
I3
I1
g829
tp4245
a(I3
I2
I3
I2
g208
tp4246
aas((I1
I01
tp4247
(I1
tp4248
(I1
I01
tp4249
(I1
I01
tp4250
tp4251
(lp4252
(lp4253
(I1
I1
I1
I2
I-1
tp4254
a(I1
I1
I2
I1
I1
tp4255
a(I2
I2
I1
I2
I-1
tp4256
a(I2
I2
I2
I1
I1
tp4257
aa(lp4258
(I1
I1
I1
I2
g794
tp4259
a(I1
I1
I2
I1
g794
tp4260
a(I1
I2
I2
I2
g789
tp4261
a(I2
I1
I1
I1
g809
tp4262
a(I2
I2
I1
I2
g798
tp4263
a(I2
I2
I2
I1
g798
tp4264
aas((I1
I01
tp4265
(I2
I01
tp4266
(I2
I01
tp4267
(I1
I01
tp4268
tp4269
(lp4270
(lp4271
(I1
I2
I2
I2
g794
tp4272
a(I1
I2
I3
I1
g782
tp4273
a(I1
I3
I1
I2
g809
tp4274
a(I1
I3
I2
I1
g802
tp4275
a(I2
I1
I2
I2
g782
tp4276
a(I2
I1
I3
I1
g789
tp4277
a(I2
I2
I1
I2
g802
tp4278
a(I2
I2
I2
I1
g798
tp4279
aa(lp4280
(I1
I1
I3
I2
g208
tp4281
a(I1
I2
I2
I2
g782
tp4282
a(I1
I2
I3
I1
g798
tp4283
a(I1
I3
I1
I2
g829
tp4284
a(I1
I3
I2
I1
g794
tp4285
a(I2
I1
I2
I2
g798
tp4286
a(I2
I1
I3
I1
g816
tp4287
a(I2
I2
I1
I2
g794
tp4288
a(I2
I2
I2
I1
g802
tp4289
a(I2
I3
I1
I1
g822
tp4290
aassg412
(dp4291
g629
(dp4292
g25
g633
sg27
(((I0
g31
(g48
g252
tp4293
Rp4294
(dp4295
bI0
tp4296
(g4294
I0
g4294
tp4297
(I0
g4294
I0
tp4298
tp4299
((I0
g647
I0
tp4300
(g635
I0
g647
tp4301
(I0
g635
I0
tp4302
tp4303
((I1
I0
I0
tp4304
(I0
I0
I0
tp4305
(I0
I0
I-1
tp4306
tp4307
tp4308
ssg692
(dp4309
g25
g696
sg27
(((g29
g255
g29
tp4310
(g255
g29
g255
tp4311
(g29
g255
g29
tp4312
tp4313
((g29
g31
(g34
g37
g252
tp4314
Rp4315
(dp4316
bg29
tp4317
(g31
(g48
g37
g252
tp4318
Rp4319
(dp4320
bg29
g4315
tp4321
(g29
g4319
g29
tp4322
tp4323
((g561
g29
g29
tp4324
(g29
g29
g29
tp4325
(g29
g29
g564
tp4326
tp4327
tp4328
ssg665
(dp4329
g25
g669
sg27
(((g29
g34
tp4330
(g34
g29
tp4331
tp4332
((g29
g31
(g34
g37
tp4333
Rp4334
(dp4335
btp4336
(g31
(g48
g37
tp4337
Rp4338
(dp4339
bg29
tp4340
tp4341
((g34
g29
tp4342
(g29
g48
tp4343
tp4344
tp4345
ssg719
(dp4346
g25
g723
sg27
(((I0
g48
tp4347
(g48
I0
tp4348
tp4349
((I0
g40
tp4350
(g51
I0
tp4351
tp4352
((g48
I0
tp4353
(I0
g34
tp4354
tp4355
tp4356
sssg494
(I1
tp4357
sg496
(dp4358
((I1
tp4359
(I1
tp4360
(I2
tp4361
tp4362
(lp4363
(I1
I1
I3
I-1
tp4364
a(I1
I2
I2
g504
tp4365
a(I2
I1
I2
g504
tp4366
a(I2
I2
I1
I-1
tp4367
as((I2
tp4368
(I1
tp4369
(I1
tp4370
tp4371
(lp4372
(I1
I2
I2
I1
tp4373
a(I2
I1
I2
g255
tp4374
a(I2
I2
I1
g255
tp4375
a(I3
I1
I1
I1
tp4376
as((I1
tp4377
(I2
tp4378
(I1
I01
tp4379
tp4380
(lp4381
(I1
I2
I1
g504
tp4382
a(I1
I3
I2
I1
tp4383
a(I2
I1
I1
I-1
tp4384
a(I2
I2
I2
g255
tp4385
as((I1
tp4386
(I2
I01
tp4387
(I1
I01
tp4388
tp4389
(lp4390
(I1
I1
I2
I-1
tp4391
a(I1
I2
I1
g504
tp4392
a(I2
I2
I2
g255
tp4393
a(I2
I3
I1
I1
tp4394
as((I2
I01
tp4395
(I1
tp4396
(I1
tp4397
tp4398
(lp4399
(I1
I1
I1
I1
tp4400
a(I2
I1
I2
g504
tp4401
a(I2
I2
I1
g504
tp4402
a(I3
I2
I2
I1
tp4403
as((I2
tp4404
(I1
tp4405
(I1
I01
tp4406
tp4407
(lp4408
(I1
I2
I1
I1
tp4409
a(I2
I1
I1
g255
tp4410
a(I2
I2
I2
g504
tp4411
a(I3
I1
I2
I-1
tp4412
as((I1
I01
tp4413
(I2
I01
tp4414
(I1
tp4415
tp4416
(lp4417
(I1
I2
I1
g504
tp4418
a(I1
I3
I2
I1
tp4419
a(I2
I1
I1
I-1
tp4420
a(I2
I2
I2
g255
tp4421
as((I1
tp4422
(I1
I01
tp4423
(I2
tp4424
tp4425
(lp4426
(I1
I1
I2
g504
tp4427
a(I1
I2
I3
I1
tp4428
a(I2
I1
I1
I-1
tp4429
a(I2
I2
I2
g255
tp4430
as((I1
I01
tp4431
(I2
I01
tp4432
(I1
I01
tp4433
tp4434
(lp4435
(I1
I2
I2
g504
tp4436
a(I1
I3
I1
I-1
tp4437
a(I2
I1
I2
I-1
tp4438
a(I2
I2
I1
g504
tp4439
as((I2
I01
tp4440
(I2
I01
tp4441
(I2
tp4442
tp4443
(lp4444
(I1
I2
I1
g504
tp4445
a(I1
I3
I2
g504
tp4446
a(I2
I1
I1
g255
tp4447
a(I2
I3
I3
g504
tp4448
a(I3
I1
I2
g255
tp4449
a(I3
I2
I3
g255
tp4450
as((I2
tp4451
(I1
I01
tp4452
(I1
I01
tp4453
tp4454
(lp4455
(I1
I1
I1
I1
tp4456
a(I2
I1
I2
g504
tp4457
a(I2
I2
I1
g504
tp4458
a(I3
I2
I2
I1
tp4459
as((I2
I01
tp4460
(I2
tp4461
(I2
tp4462
tp4463
(lp4464
(I1
I1
I2
g255
tp4465
a(I1
I2
I1
g504
tp4466
a(I2
I1
I3
g255
tp4467
a(I2
I3
I1
g504
tp4468
a(I3
I2
I3
g255
tp4469
a(I3
I3
I2
g504
tp4470
as((I1
I01
tp4471
(I2
tp4472
(I1
tp4473
tp4474
(lp4475
(I1
I1
I2
I-1
tp4476
a(I1
I2
I1
g504
tp4477
a(I2
I2
I2
g255
tp4478
a(I2
I3
I1
I1
tp4479
as((I2
I01
tp4480
(I1
I01
tp4481
(I1
I01
tp4482
tp4483
(lp4484
(I1
I2
I2
I1
tp4485
a(I2
I1
I2
g255
tp4486
a(I2
I2
I1
g255
tp4487
a(I3
I1
I1
I1
tp4488
as((I2
tp4489
(I2
I01
tp4490
(I2
tp4491
tp4492
(lp4493
(I1
I1
I2
g504
tp4494
a(I1
I2
I3
g504
tp4495
a(I2
I1
I1
g255
tp4496
a(I2
I3
I3
g504
tp4497
a(I3
I2
I1
g255
tp4498
a(I3
I3
I2
g255
tp4499
as((I2
I01
tp4500
(I2
I01
tp4501
(I2
I01
tp4502
tp4503
(lp4504
(I1
I2
I3
g504
tp4505
a(I1
I3
I2
g255
tp4506
a(I2
I1
I3
g255
tp4507
a(I2
I3
I1
g504
tp4508
a(I3
I1
I2
g504
tp4509
a(I3
I2
I1
g255
tp4510
as((I2
tp4511
(I2
I01
tp4512
(I2
I01
tp4513
tp4514
(lp4515
(I1
I1
I2
g255
tp4516
a(I1
I2
I1
g504
tp4517
a(I2
I1
I3
g255
tp4518
a(I2
I3
I1
g504
tp4519
a(I3
I2
I3
g255
tp4520
a(I3
I3
I2
g504
tp4521
as((I2
tp4522
(I2
tp4523
(I2
I01
tp4524
tp4525
(lp4526
(I1
I2
I1
g504
tp4527
a(I1
I3
I2
g504
tp4528
a(I2
I1
I1
g255
tp4529
a(I2
I3
I3
g504
tp4530
a(I3
I1
I2
g255
tp4531
a(I3
I2
I3
g255
tp4532
as((I1
I01
tp4533
(I1
tp4534
(I2
tp4535
tp4536
(lp4537
(I1
I1
I2
g255
tp4538
a(I1
I2
I1
I1
tp4539
a(I2
I1
I3
I-1
tp4540
a(I2
I2
I2
g504
tp4541
as((I1
I01
tp4542
(I1
I01
tp4543
(I2
tp4544
tp4545
(lp4546
(I1
I1
I1
I1
tp4547
a(I1
I2
I2
g504
tp4548
a(I2
I1
I2
g504
tp4549
a(I2
I2
I3
I1
tp4550
as((I1
I01
tp4551
(I1
tp4552
(I2
I01
tp4553
tp4554
(lp4555
(I1
I1
I2
g504
tp4556
a(I1
I2
I3
I1
tp4557
a(I2
I1
I1
I-1
tp4558
a(I2
I2
I2
g255
tp4559
as((I2
tp4560
(I2
tp4561
(I2
tp4562
tp4563
(lp4564
(I1
I2
I3
g504
tp4565
a(I1
I3
I2
g255
tp4566
a(I2
I1
I3
g255
tp4567
a(I2
I3
I1
g504
tp4568
a(I3
I1
I2
g504
tp4569
a(I3
I2
I1
g255
tp4570
as((I1
tp4571
(I2
tp4572
(I1
tp4573
tp4574
(lp4575
(I1
I2
I2
g504
tp4576
a(I1
I3
I1
I-1
tp4577
a(I2
I1
I2
I-1
tp4578
a(I2
I2
I1
g504
tp4579
as((I2
tp4580
(I1
I01
tp4581
(I1
tp4582
tp4583
(lp4584
(I1
I1
I2
I1
tp4585
a(I2
I1
I1
g255
tp4586
a(I2
I2
I2
g504
tp4587
a(I3
I2
I1
I-1
tp4588
as((I2
I01
tp4589
(I1
I01
tp4590
(I1
tp4591
tp4592
(lp4593
(I1
I2
I1
I1
tp4594
a(I2
I1
I1
g255
tp4595
a(I2
I2
I2
g504
tp4596
a(I3
I1
I2
I-1
tp4597
as((I2
I01
tp4598
(I1
tp4599
(I1
I01
tp4600
tp4601
(lp4602
(I1
I1
I2
I1
tp4603
a(I2
I1
I1
g255
tp4604
a(I2
I2
I2
g504
tp4605
a(I3
I2
I1
I-1
tp4606
as((I1
tp4607
(I1
tp4608
(I2
I01
tp4609
tp4610
(lp4611
(I1
I1
I1
I1
tp4612
a(I1
I2
I2
g504
tp4613
a(I2
I1
I2
g504
tp4614
a(I2
I2
I3
I1
tp4615
as((I1
tp4616
(I1
I01
tp4617
(I2
I01
tp4618
tp4619
(lp4620
(I1
I1
I2
g255
tp4621
a(I1
I2
I1
I1
tp4622
a(I2
I1
I3
I-1
tp4623
a(I2
I2
I2
g504
tp4624
as((I1
I01
tp4625
(I1
I01
tp4626
(I2
I01
tp4627
tp4628
(lp4629
(I1
I1
I3
I-1
tp4630
a(I1
I2
I2
g504
tp4631
a(I2
I1
I2
g504
tp4632
a(I2
I2
I1
I-1
tp4633
as((I1
I01
tp4634
(I2
tp4635
(I1
I01
tp4636
tp4637
(lp4638
(I1
I1
I1
I1
tp4639
a(I1
I2
I2
g504
tp4640
a(I2
I2
I1
g504
tp4641
a(I2
I3
I2
I1
tp4642
as((I2
I01
tp4643
(I2
tp4644
(I2
I01
tp4645
tp4646
(lp4647
(I1
I1
I2
g504
tp4648
a(I1
I2
I3
g504
tp4649
a(I2
I1
I1
g255
tp4650
a(I2
I3
I3
g504
tp4651
a(I3
I2
I1
g255
tp4652
a(I3
I3
I2
g255
tp4653
as((I1
tp4654
(I2
I01
tp4655
(I1
tp4656
tp4657
(lp4658
(I1
I1
I1
I1
tp4659
a(I1
I2
I2
g504
tp4660
a(I2
I2
I1
g504
tp4661
a(I2
I3
I2
I1
tp4662
assg523
(dp4663
g629
(dp4664
sg665
(dp4665
sg692
(dp4666
sg719
(dp4667
ssg527
(dp4668
(I2
tp4669
I2
s(I1
I01
tp4670
g32
(I3
I4
tp4671
Rp4672
(dp4673
bs(I2
I01
tp4674
I2
s(I1
tp4675
g4672
ssg534
(dp4676
(I2
tp4677
I3
s(I0
tp4678
I0
s(I1
I01
tp4679
I2
s(I2
I01
tp4680
I3
s(I1
tp4681
I2
ssg539
g540
(g541
(I0
tp4682
g543
tp4683
Rp4684
(I1
(I3
I3
I3
tp4685
g550
I00
(lp4686
g29
ag29
ag29
ag29
ag29
ag561
ag29
ag564
ag29
ag29
ag29
ag564
ag29
ag29
ag29
ag561
ag29
ag29
ag29
ag561
ag29
ag564
ag29
ag29
ag29
ag29
ag29
atp4687
bsg567
(I2
tp4688
sg569
(dp4689
I1
(I0
tp4690
sI2
(I1
tp4691
sI3
(I2
tp4692
sI-3
(I2
I01
tp4693
sI-2
(I1
I01
tp4694
sssS'date'
p4695
S'August 22 2013'
p4696
s.