(lp0
(lp1
S"{'SU3': -7*g_SU3**3/(16*pi**2), 'U1': 41*g1**3/(96*pi**2), 'SU2': -19*g_SU2**3/(96*pi**2)}"
p2
aa((lp3
S'Y_{u}'
p4
aS'Y_{e}'
p5
aS'Y_{d}'
p6
a(lp7
(lp8
(lp9
S'\\Lambda_1'
p10
a(lp11
S'\\mu_1'
p12
a(lp13
S'g1'
p14
aS'g_SU3'
p15
aS'g_SU2'
p16
a(lp17
S'U1'
p18
aS'SU3'
p19
aS'SU2'
p20
a(lp21
S'Qbar'
p22
aS'H*'
p23
aS'Pi'
p24
aS'H'
p25
aS'Sigma'
p26
aS'Lbar'
p27
aS'dR'
p28
aS'eR'
p29
aS'uR'
p30
a(lp31
S'Qbar_f'
p32
aS'H*_f'
p33
aS'Pi_f'
p34
aS'H_f'
p35
aS'Sigma_f'
p36
aS'Lbar_f'
p37
aS'dR_f'
p38
aS'eR_f'
p39
aS'uR_f'
p40
a(lp41
S'Qbar1_f'
p42
aS'H*1_f'
p43
aS'Pi1_f'
p44
aS'H1_f'
p45
aS'Sigma1_f'
p46
aS'Lbar1_f'
p47
aS'dR1_f'
p48
aS'eR1_f'
p49
aS'uR1_f'
p50
atp51
aS'Generated by PyR@TE for SM.'
p52
a.