(lp0
(lp1
S"{'SU3': -7*g_SU3**3/(16*pi**2), 'U1': 41*g1**3/(96*pi**2), 'SU2': -19*g_SU2**3/(96*pi**2)}"
p2
aS"{'Y_{u}': -17*g1**2*Y_{u}(Qbar_f, uR_f)/(192*pi**2) - 9*g_SU2**2*Y_{u}(Qbar_f, uR_f)/(64*pi**2) - g_SU3**2*Y_{u}(Qbar_f, uR_f)/(2*pi**2) + 3*trace(adjoint(Y_{d}), Y_{d})*Y_{u}(Qbar_f, uR_f)/(16*pi**2) + trace(adjoint(Y_{e}), Y_{e})*Y_{u}(Qbar_f, uR_f)/(16*pi**2) + 3*trace(adjoint(Y_{u}), Y_{u})*Y_{u}(Qbar_f, uR_f)/(16*pi**2) - 3*MatM((Y_{d}, adjoint(Y_{d}), Y_{u}), Qbar_f, uR_f)/(32*pi**2) + 3*MatM((Y_{u}, adjoint(Y_{u}), Y_{u}), Qbar_f, uR_f)/(32*pi**2), 'Y_{e}': -15*g1**2*Y_{e}(Lbar_f, eR_f)/(64*pi**2) - 9*g_SU2**2*Y_{e}(Lbar_f, eR_f)/(64*pi**2) + 3*trace(adjoint(Y_{d}), Y_{d})*Y_{e}(Lbar_f, eR_f)/(16*pi**2) + trace(adjoint(Y_{e}), Y_{e})*Y_{e}(Lbar_f, eR_f)/(16*pi**2) + 3*trace(adjoint(Y_{u}), Y_{u})*Y_{e}(Lbar_f, eR_f)/(16*pi**2) + 3*MatM((Y_{e}, adjoint(Y_{e}), Y_{e}), Lbar_f, eR_f)/(32*pi**2), 'Y_{d}': -5*g1**2*Y_{d}(Qbar_f, dR_f)/(192*pi**2) - 9*g_SU2**2*Y_{d}(Qbar_f, dR_f)/(64*pi**2) - g_SU3**2*Y_{d}(Qbar_f, dR_f)/(2*pi**2) + 3*trace(adjoint(Y_{d}), Y_{d})*Y_{d}(Qbar_f, dR_f)/(16*pi**2) + trace(adjoint(Y_{e}), Y_{e})*Y_{d}(Qbar_f, dR_f)/(16*pi**2) + 3*trace(adjoint(Y_{u}), Y_{u})*Y_{d}(Qbar_f, dR_f)/(16*pi**2) + 3*MatM((Y_{d}, adjoint(Y_{d}), Y_{d}), Qbar_f, dR_f)/(32*pi**2) - 3*MatM((Y_{u}, adjoint(Y_{u}), Y_{d}), Qbar_f, dR_f)/(32*pi**2)}"
p3
aa((lp4
S'Y_{u}'
p5
aS'Y_{e}'
p6
aS'Y_{d}'
p7
a(lp8
(lp9
(lp10
S'\\Lambda_1'
p11
a(lp12
S'\\mu_1'
p13
a(lp14
S'g1'
p15
aS'g_SU3'
p16
aS'g_SU2'
p17
a(lp18
S'U1'
p19
aS'SU3'
p20
aS'SU2'
p21
a(lp22
S'Qbar'
p23
aS'H*'
p24
aS'Pi'
p25
aS'H'
p26
aS'Sigma'
p27
aS'Lbar'
p28
aS'dR'
p29
aS'eR'
p30
aS'uR'
p31
a(lp32
S'Qbar_f'
p33
aS'H*_f'
p34
aS'Pi_f'
p35
aS'H_f'
p36
aS'Sigma_f'
p37
aS'Lbar_f'
p38
aS'dR_f'
p39
aS'eR_f'
p40
aS'uR_f'
p41
atp42
aS'Generated by PyR@TE for SM'
p43
a.