(lp0
(lp1
S"{'SU2L': -19*g_SU2L**3/(96*pi**2), 'U1': 41*g1**3/(96*pi**2), 'SU3c': -7*g_SU3c**3/(16*pi**2)}"
p2
aS"{'Y_{u}': -17*g1**2*Y_{u}(Qbar_f, uR_f)/(192*pi**2) - 9*g_SU2L**2*Y_{u}(Qbar_f, uR_f)/(64*pi**2) - g_SU3c**2*Y_{u}(Qbar_f, uR_f)/(2*pi**2) + 3*trace(Y_d, adjoint(Y_d))*Y_{u}(Qbar_f, uR_f)/(16*pi**2) + trace(Y_e, adjoint(Y_e))*Y_{u}(Qbar_f, uR_f)/(16*pi**2) + 3*trace(Y_u, adjoint(Y_u))*Y_{u}(Qbar_f, uR_f)/(16*pi**2) - 3*MatM((Y_d, adjoint(Y_d), Y_u), Qbar_f, uR_f)/(32*pi**2) + 3*MatM((Y_u, adjoint(Y_u), Y_u), Qbar_f, uR_f)/(32*pi**2), 'Y_{e}': -15*g1**2*Y_{e}(Lbar_f, eR_f)/(64*pi**2) - 9*g_SU2L**2*Y_{e}(Lbar_f, eR_f)/(64*pi**2) + 3*trace(Y_d, adjoint(Y_d))*Y_{e}(Lbar_f, eR_f)/(16*pi**2) + trace(Y_e, adjoint(Y_e))*Y_{e}(Lbar_f, eR_f)/(16*pi**2) + 3*trace(Y_u, adjoint(Y_u))*Y_{e}(Lbar_f, eR_f)/(16*pi**2) + 3*MatM((Y_e, adjoint(Y_e), Y_e), Lbar_f, eR_f)/(32*pi**2), 'Y_{d}': -5*g1**2*Y_{d}(Qbar_f, dR_f)/(192*pi**2) - 9*g_SU2L**2*Y_{d}(Qbar_f, dR_f)/(64*pi**2) - g_SU3c**2*Y_{d}(Qbar_f, dR_f)/(2*pi**2) + 3*trace(Y_d, adjoint(Y_d))*Y_{d}(Qbar_f, dR_f)/(16*pi**2) + trace(Y_e, adjoint(Y_e))*Y_{d}(Qbar_f, dR_f)/(16*pi**2) + 3*trace(Y_u, adjoint(Y_u))*Y_{d}(Qbar_f, dR_f)/(16*pi**2) + 3*MatM((Y_d, adjoint(Y_d), Y_d), Qbar_f, dR_f)/(32*pi**2) - 3*MatM((Y_u, adjoint(Y_u), Y_d), Qbar_f, dR_f)/(32*pi**2)}"
p3
aS"{'\\\\mu_1': 3*\\Lambda_1*\\mu_1/(8*pi**2) - 3*\\mu_1*g1**2/(32*pi**2) - 9*\\mu_1*g_SU2L**2/(32*pi**2) + 3*\\mu_1*trace(Y_d, adjoint(Y_d))/(8*pi**2) + \\mu_1*trace(Y_e, adjoint(Y_e))/(8*pi**2) + 3*\\mu_1*trace(Y_u, adjoint(Y_u))/(8*pi**2)}"
p4
aS"{'\\\\Lambda_1': 3*\\Lambda_1**2/(4*pi**2) - 3*\\Lambda_1*g1**2/(16*pi**2) - 9*\\Lambda_1*g_SU2L**2/(16*pi**2) + 3*\\Lambda_1*trace(Y_d, adjoint(Y_d))/(4*pi**2) + \\Lambda_1*trace(Y_e, adjoint(Y_e))/(4*pi**2) + 3*\\Lambda_1*trace(Y_u, adjoint(Y_u))/(4*pi**2) + 3*g1**4/(64*pi**2) + 3*g1**2*g_SU2L**2/(32*pi**2) + 9*g_SU2L**4/(64*pi**2) - 3*trace(Y_d, adjoint(Y_d), Y_d, adjoint(Y_d))/(4*pi**2) - trace(Y_e, adjoint(Y_e), Y_e, adjoint(Y_e))/(4*pi**2) - 3*trace(Y_u, adjoint(Y_u), Y_u, adjoint(Y_u))/(4*pi**2)}"
p5
aS"{'\\\\gamma_{\\\\Sigma\\\\Pi,1,1}': g1**2*xi/(64*pi**2) - 3*g1**2/(64*pi**2) + 3*g_SU2L**2*xi/(64*pi**2) - 9*g_SU2L**2/(64*pi**2) + 3*trace(Y_d, adjoint(Y_d))/(16*pi**2) + trace(Y_e, adjoint(Y_e))/(16*pi**2) + 3*trace(Y_u, adjoint(Y_u))/(16*pi**2)}"
p6
aS"{'\\\\gamma_{\\\\Sigma\\\\Pi,1,1}': g1**2*xi/(64*pi**2) - 3*g1**2/(64*pi**2) + 3*g_SU2L**2*xi/(64*pi**2) - 9*g_SU2L**2/(64*pi**2) + 3*trace(Y_d, adjoint(Y_d))/(16*pi**2) + trace(Y_e, adjoint(Y_e))/(16*pi**2) + 3*trace(Y_u, adjoint(Y_u))/(16*pi**2)}"
p7
aS'{}'
p8
aa((lp9
S'Y_{u}'
p10
aS'Y_{e}'
p11
aS'Y_{d}'
p12
a(lp13
(lp14
(lp15
S'\\Lambda_1'
p16
a(lp17
S'\\mu_1'
p18
a(lp19
S'g_SU2L'
p20
aS'g1'
p21
aS'g_SU3c'
p22
a(lp23
S'SU2L'
p24
aS'U1'
p25
aS'SU3c'
p26
a(lp27
S'Qbar'
p28
aS'H*'
p29
aS'Pi'
p30
aS'H'
p31
aS'Sigma'
p32
aS'Lbar'
p33
aS'dR'
p34
aS'eR'
p35
aS'uR'
p36
a(lp37
S'Qbar_f'
p38
aS'H*_f'
p39
aS'Pi_f'
p40
aS'H_f'
p41
aS'Sigma_f'
p42
aS'Lbar_f'
p43
aS'dR_f'
p44
aS'eR_f'
p45
aS'uR_f'
p46
a(lp47
S'Qbar1_f'
p48
aS'H*1_f'
p49
aS'Pi1_f'
p50
aS'H1_f'
p51
aS'Sigma1_f'
p52
aS'Lbar1_f'
p53
aS'dR1_f'
p54
aS'eR1_f'
p55
aS'uR1_f'
p56
a(lp57
S'\\gamma_{\\Sigma\\Pi,1,1}'
p58
a(lp59
(lp60
S'xi'
p61
aS'g_SUndum'
p62
atp63
aS'Generated by PyR@TE for SM.'
p64
a.